Archive member included because of file (symbol)

C:\Users\Satyanarayana\SimplicityStudio\v4_workspace\soc-smartPhone_NoBuff\protocol\bluetooth_2.6\lib\EFR32BG13P\GCC\bgapi.a(gecko_bgapi_hardware.c.obj)
                              ./main.o (gecko_bgapi_class_hardware_init)
C:\Users\Satyanarayana\SimplicityStudio\v4_workspace\soc-smartPhone_NoBuff\protocol\bluetooth_2.6\lib\EFR32BG13P\GCC\bgapi.a(gecko_bgapi_test.c.obj)
                              ./main.o (gecko_bgapi_class_test_init)
C:\Users\Satyanarayana\SimplicityStudio\v4_workspace\soc-smartPhone_NoBuff\protocol\bluetooth_2.6\lib\EFR32BG13P\GCC\bgapi.a(gecko_bgapi_dfu.c.obj)
                              ./main.o (gecko_bgapi_class_dfu_init)
C:\Users\Satyanarayana\SimplicityStudio\v4_workspace\soc-smartPhone_NoBuff\protocol\bluetooth_2.6\lib\EFR32BG13P\GCC\bgapi.a(gecko_bgapi_gap.c.obj)
                              ./main.o (gecko_bgapi_class_le_gap_init)
C:\Users\Satyanarayana\SimplicityStudio\v4_workspace\soc-smartPhone_NoBuff\protocol\bluetooth_2.6\lib\EFR32BG13P\GCC\bgapi.a(gecko_bgapi_gatt.c.obj)
                              ./main.o (gecko_bgapi_class_gatt_init)
C:\Users\Satyanarayana\SimplicityStudio\v4_workspace\soc-smartPhone_NoBuff\protocol\bluetooth_2.6\lib\EFR32BG13P\GCC\bgapi.a(gecko_bgapi_gatt_server.c.obj)
                              ./main.o (gecko_bgapi_class_gatt_server_init)
C:\Users\Satyanarayana\SimplicityStudio\v4_workspace\soc-smartPhone_NoBuff\protocol\bluetooth_2.6\lib\EFR32BG13P\GCC\bgapi.a(gecko_bgapi_flash.c.obj)
                              ./main.o (gecko_bgapi_class_flash_init)
C:\Users\Satyanarayana\SimplicityStudio\v4_workspace\soc-smartPhone_NoBuff\protocol\bluetooth_2.6\lib\EFR32BG13P\GCC\bgapi.a(gecko_bgapi_sm.c.obj)
                              ./main.o (gecko_bgapi_class_sm_init)
C:\Users\Satyanarayana\SimplicityStudio\v4_workspace\soc-smartPhone_NoBuff\protocol\bluetooth_2.6\lib\EFR32BG13P\GCC\bgapi.a(gecko_bgapi_system.c.obj)
                              ./main.o (gecko_bgapi_class_system_init)
C:\Users\Satyanarayana\SimplicityStudio\v4_workspace\soc-smartPhone_NoBuff\protocol\bluetooth_2.6\lib\EFR32BG13P\GCC\bgapi.a(gecko_bgapi_endpoint.c.obj)
                              ./main.o (gecko_bgapi_class_endpoint_init)
C:\Users\Satyanarayana\SimplicityStudio\v4_workspace\soc-smartPhone_NoBuff\protocol\bluetooth_2.6\lib\EFR32BG13P\GCC\bgapi.a(gecko_bgapi_le_connection.c.obj)
                              ./main.o (gecko_bgapi_class_le_connection_init)
C:\Users\Satyanarayana\SimplicityStudio\v4_workspace\soc-smartPhone_NoBuff\protocol\bluetooth_2.6\lib\EFR32BG13P\GCC\bgapi.a(bgapi_hardware.c.obj)
                              C:\Users\Satyanarayana\SimplicityStudio\v4_workspace\soc-smartPhone_NoBuff\protocol\bluetooth_2.6\lib\EFR32BG13P\GCC\bgapi.a(gecko_bgapi_hardware.c.obj) (lib_hardware_handler_init)
C:\Users\Satyanarayana\SimplicityStudio\v4_workspace\soc-smartPhone_NoBuff\protocol\bluetooth_2.6\lib\EFR32BG13P\GCC\bgapi.a(bgapi_test_lib.c.obj)
                              C:\Users\Satyanarayana\SimplicityStudio\v4_workspace\soc-smartPhone_NoBuff\protocol\bluetooth_2.6\lib\EFR32BG13P\GCC\bgapi.a(gecko_bgapi_test.c.obj) (lib_test_handler_init)
C:\Users\Satyanarayana\SimplicityStudio\v4_workspace\soc-smartPhone_NoBuff\protocol\bluetooth_2.6\lib\EFR32BG13P\GCC\bgapi.a(bgapi_dfu.c.obj)
                              C:\Users\Satyanarayana\SimplicityStudio\v4_workspace\soc-smartPhone_NoBuff\protocol\bluetooth_2.6\lib\EFR32BG13P\GCC\bgapi.a(gecko_bgapi_dfu.c.obj) (lib_dfu_handler_init)
C:\Users\Satyanarayana\SimplicityStudio\v4_workspace\soc-smartPhone_NoBuff\protocol\bluetooth_2.6\lib\EFR32BG13P\GCC\bgapi.a(bgapi_gap.c.obj)
                              C:\Users\Satyanarayana\SimplicityStudio\v4_workspace\soc-smartPhone_NoBuff\protocol\bluetooth_2.6\lib\EFR32BG13P\GCC\bgapi.a(gecko_bgapi_gap.c.obj) (lib_le_gap_handler_init)
C:\Users\Satyanarayana\SimplicityStudio\v4_workspace\soc-smartPhone_NoBuff\protocol\bluetooth_2.6\lib\EFR32BG13P\GCC\bgapi.a(bgapi_gatt_lib.c.obj)
                              C:\Users\Satyanarayana\SimplicityStudio\v4_workspace\soc-smartPhone_NoBuff\protocol\bluetooth_2.6\lib\EFR32BG13P\GCC\bgapi.a(gecko_bgapi_gatt.c.obj) (lib_gatt_handler_init)
C:\Users\Satyanarayana\SimplicityStudio\v4_workspace\soc-smartPhone_NoBuff\protocol\bluetooth_2.6\lib\EFR32BG13P\GCC\bgapi.a(bgapi_ps.c.obj)
                              C:\Users\Satyanarayana\SimplicityStudio\v4_workspace\soc-smartPhone_NoBuff\protocol\bluetooth_2.6\lib\EFR32BG13P\GCC\bgapi.a(gecko_bgapi_flash.c.obj) (lib_flash_handler_init)
C:\Users\Satyanarayana\SimplicityStudio\v4_workspace\soc-smartPhone_NoBuff\protocol\bluetooth_2.6\lib\EFR32BG13P\GCC\bgapi.a(bgapi_sm.c.obj)
                              C:\Users\Satyanarayana\SimplicityStudio\v4_workspace\soc-smartPhone_NoBuff\protocol\bluetooth_2.6\lib\EFR32BG13P\GCC\bgapi.a(gecko_bgapi_sm.c.obj) (lib_sm_handler_init)
C:\Users\Satyanarayana\SimplicityStudio\v4_workspace\soc-smartPhone_NoBuff\protocol\bluetooth_2.6\lib\EFR32BG13P\GCC\bgapi.a(bgapi_system.c.obj)
                              C:\Users\Satyanarayana\SimplicityStudio\v4_workspace\soc-smartPhone_NoBuff\protocol\bluetooth_2.6\lib\EFR32BG13P\GCC\bgapi.a(gecko_bgapi_system.c.obj) (lib_system_handler_init)
C:\Users\Satyanarayana\SimplicityStudio\v4_workspace\soc-smartPhone_NoBuff\protocol\bluetooth_2.6\lib\EFR32BG13P\GCC\bgapi.a(bgapi_endpoint.c.obj)
                              C:\Users\Satyanarayana\SimplicityStudio\v4_workspace\soc-smartPhone_NoBuff\protocol\bluetooth_2.6\lib\EFR32BG13P\GCC\bgapi.a(gecko_bgapi_endpoint.c.obj) (lib_endpoint_handler_init)
C:\Users\Satyanarayana\SimplicityStudio\v4_workspace\soc-smartPhone_NoBuff\protocol\bluetooth_2.6\lib\EFR32BG13P\GCC\bgapi.a(bgapi_le_connection.c.obj)
                              C:\Users\Satyanarayana\SimplicityStudio\v4_workspace\soc-smartPhone_NoBuff\protocol\bluetooth_2.6\lib\EFR32BG13P\GCC\bgapi.a(gecko_bgapi_le_connection.c.obj) (lib_le_connection_handler_init)
C:\Users\Satyanarayana\SimplicityStudio\v4_workspace\soc-smartPhone_NoBuff\protocol\bluetooth_2.6\lib\EFR32BG13P\GCC\bgapi.a(gatt_client.c.obj)
                              C:\Users\Satyanarayana\SimplicityStudio\v4_workspace\soc-smartPhone_NoBuff\protocol\bluetooth_2.6\lib\EFR32BG13P\GCC\bgapi.a(bgapi_gatt_lib.c.obj) (gatt_client_init)
C:\Users\Satyanarayana\SimplicityStudio\v4_workspace\soc-smartPhone_NoBuff\protocol\bluetooth_2.6\lib\EFR32BG13P\GCC\bgapi.a(ubt_gatt_client.c.obj)
                              C:\Users\Satyanarayana\SimplicityStudio\v4_workspace\soc-smartPhone_NoBuff\protocol\bluetooth_2.6\lib\EFR32BG13P\GCC\bgapi.a(bgapi_gatt_lib.c.obj) (ubt_gatt_discover_primary_services)
C:\Users\Satyanarayana\SimplicityStudio\v4_workspace\soc-smartPhone_NoBuff\protocol\bluetooth_2.6\lib\EFR32BG13P\GCC\bgapi.a(att_client.c.obj)
                              C:\Users\Satyanarayana\SimplicityStudio\v4_workspace\soc-smartPhone_NoBuff\protocol\bluetooth_2.6\lib\EFR32BG13P\GCC\bgapi.a(gatt_client.c.obj) (att_send_find_information_request)
c:/siliconlabs/simplicitystudio/v4/developer/toolchains/gnu_arm/4.9_2015q3/bin/../lib/gcc/arm-none-eabi/4.9.3/armv7e-m/fpu\libgcc.a(_arm_muldivdf3.o)
                              ./src/letimer0.o (__aeabi_dmul)
c:/siliconlabs/simplicitystudio/v4/developer/toolchains/gnu_arm/4.9_2015q3/bin/../lib/gcc/arm-none-eabi/4.9.3/armv7e-m/fpu\libgcc.a(_arm_fixdfsi.o)
                              ./src/letimer0.o (__aeabi_d2iz)
c:/siliconlabs/simplicitystudio/v4/developer/toolchains/gnu_arm/4.9_2015q3/bin/../lib/gcc/arm-none-eabi/4.9.3/armv7e-m/fpu\libgcc.a(_aeabi_uldivmod.o)
                              ./emlib/em_usart.o (__aeabi_uldivmod)
c:/siliconlabs/simplicitystudio/v4/developer/toolchains/gnu_arm/4.9_2015q3/bin/../lib/gcc/arm-none-eabi/4.9.3/armv7e-m/fpu\libgcc.a(bpabi.o)
                              c:/siliconlabs/simplicitystudio/v4/developer/toolchains/gnu_arm/4.9_2015q3/bin/../lib/gcc/arm-none-eabi/4.9.3/armv7e-m/fpu\libgcc.a(_aeabi_uldivmod.o) (__gnu_uldivmod_helper)
c:/siliconlabs/simplicitystudio/v4/developer/toolchains/gnu_arm/4.9_2015q3/bin/../lib/gcc/arm-none-eabi/4.9.3/armv7e-m/fpu\libgcc.a(_dvmd_tls.o)
                              c:/siliconlabs/simplicitystudio/v4/developer/toolchains/gnu_arm/4.9_2015q3/bin/../lib/gcc/arm-none-eabi/4.9.3/armv7e-m/fpu\libgcc.a(_aeabi_uldivmod.o) (__aeabi_ldiv0)
c:/siliconlabs/simplicitystudio/v4/developer/toolchains/gnu_arm/4.9_2015q3/bin/../lib/gcc/arm-none-eabi/4.9.3/armv7e-m/fpu\libgcc.a(_divdi3.o)
                              c:/siliconlabs/simplicitystudio/v4/developer/toolchains/gnu_arm/4.9_2015q3/bin/../lib/gcc/arm-none-eabi/4.9.3/armv7e-m/fpu\libgcc.a(bpabi.o) (__divdi3)
c:/siliconlabs/simplicitystudio/v4/developer/toolchains/gnu_arm/4.9_2015q3/bin/../lib/gcc/arm-none-eabi/4.9.3/armv7e-m/fpu\libgcc.a(_udivdi3.o)
                              c:/siliconlabs/simplicitystudio/v4/developer/toolchains/gnu_arm/4.9_2015q3/bin/../lib/gcc/arm-none-eabi/4.9.3/armv7e-m/fpu\libgcc.a(bpabi.o) (__udivdi3)
c:/siliconlabs/simplicitystudio/v4/developer/toolchains/gnu_arm/4.9_2015q3/bin/../lib/gcc/arm-none-eabi/4.9.3/../../../../arm-none-eabi/lib/armv7e-m/fpu\libc.a(lib_a-exit.o)
                              c:/siliconlabs/simplicitystudio/v4/developer/toolchains/gnu_arm/4.9_2015q3/bin/../lib/gcc/arm-none-eabi/4.9.3/../../../../arm-none-eabi/lib/armv7e-m/fpu/crt0.o (exit)
c:/siliconlabs/simplicitystudio/v4/developer/toolchains/gnu_arm/4.9_2015q3/bin/../lib/gcc/arm-none-eabi/4.9.3/../../../../arm-none-eabi/lib/armv7e-m/fpu\libc.a(lib_a-impure.o)
                              c:/siliconlabs/simplicitystudio/v4/developer/toolchains/gnu_arm/4.9_2015q3/bin/../lib/gcc/arm-none-eabi/4.9.3/../../../../arm-none-eabi/lib/armv7e-m/fpu\libc.a(lib_a-exit.o) (_global_impure_ptr)
c:/siliconlabs/simplicitystudio/v4/developer/toolchains/gnu_arm/4.9_2015q3/bin/../lib/gcc/arm-none-eabi/4.9.3/../../../../arm-none-eabi/lib/armv7e-m/fpu\libc.a(lib_a-init.o)
                              c:/siliconlabs/simplicitystudio/v4/developer/toolchains/gnu_arm/4.9_2015q3/bin/../lib/gcc/arm-none-eabi/4.9.3/../../../../arm-none-eabi/lib/armv7e-m/fpu/crt0.o (__libc_init_array)
c:/siliconlabs/simplicitystudio/v4/developer/toolchains/gnu_arm/4.9_2015q3/bin/../lib/gcc/arm-none-eabi/4.9.3/../../../../arm-none-eabi/lib/armv7e-m/fpu\libc.a(lib_a-memcpy.o)
                              ./app.o (memcpy)
c:/siliconlabs/simplicitystudio/v4/developer/toolchains/gnu_arm/4.9_2015q3/bin/../lib/gcc/arm-none-eabi/4.9.3/../../../../arm-none-eabi/lib/armv7e-m/fpu\libc.a(lib_a-memset.o)
                              c:/siliconlabs/simplicitystudio/v4/developer/toolchains/gnu_arm/4.9_2015q3/bin/../lib/gcc/arm-none-eabi/4.9.3/../../../../arm-none-eabi/lib/armv7e-m/fpu/crt0.o (memset)
c:/siliconlabs/simplicitystudio/v4/developer/toolchains/gnu_arm/4.9_2015q3/bin/../lib/gcc/arm-none-eabi/4.9.3/../../../../arm-none-eabi/lib/armv7e-m/fpu\libc.a(lib_a-snprintf.o)
                              ./app.o (snprintf)
c:/siliconlabs/simplicitystudio/v4/developer/toolchains/gnu_arm/4.9_2015q3/bin/../lib/gcc/arm-none-eabi/4.9.3/../../../../arm-none-eabi/lib/armv7e-m/fpu\libc.a(lib_a-strlen.o)
                              ./app.o (strlen)
c:/siliconlabs/simplicitystudio/v4/developer/toolchains/gnu_arm/4.9_2015q3/bin/../lib/gcc/arm-none-eabi/4.9.3/../../../../arm-none-eabi/lib/armv7e-m/fpu\libc.a(lib_a-svfprintf.o)
                              c:/siliconlabs/simplicitystudio/v4/developer/toolchains/gnu_arm/4.9_2015q3/bin/../lib/gcc/arm-none-eabi/4.9.3/../../../../arm-none-eabi/lib/armv7e-m/fpu\libc.a(lib_a-snprintf.o) (_svfprintf_r)
c:/siliconlabs/simplicitystudio/v4/developer/toolchains/gnu_arm/4.9_2015q3/bin/../lib/gcc/arm-none-eabi/4.9.3/../../../../arm-none-eabi/lib/armv7e-m/fpu\libc.a(lib_a-__call_atexit.o)
                              c:/siliconlabs/simplicitystudio/v4/developer/toolchains/gnu_arm/4.9_2015q3/bin/../lib/gcc/arm-none-eabi/4.9.3/../../../../arm-none-eabi/lib/armv7e-m/fpu\libc.a(lib_a-exit.o) (__call_exitprocs)
c:/siliconlabs/simplicitystudio/v4/developer/toolchains/gnu_arm/4.9_2015q3/bin/../lib/gcc/arm-none-eabi/4.9.3/../../../../arm-none-eabi/lib/armv7e-m/fpu\libc.a(lib_a-atexit.o)
                              c:/siliconlabs/simplicitystudio/v4/developer/toolchains/gnu_arm/4.9_2015q3/bin/../lib/gcc/arm-none-eabi/4.9.3/../../../../arm-none-eabi/lib/armv7e-m/fpu\libc.a(lib_a-__call_atexit.o) (atexit)
c:/siliconlabs/simplicitystudio/v4/developer/toolchains/gnu_arm/4.9_2015q3/bin/../lib/gcc/arm-none-eabi/4.9.3/../../../../arm-none-eabi/lib/armv7e-m/fpu\libc.a(lib_a-dtoa.o)
                              c:/siliconlabs/simplicitystudio/v4/developer/toolchains/gnu_arm/4.9_2015q3/bin/../lib/gcc/arm-none-eabi/4.9.3/../../../../arm-none-eabi/lib/armv7e-m/fpu\libc.a(lib_a-svfprintf.o) (_dtoa_r)
c:/siliconlabs/simplicitystudio/v4/developer/toolchains/gnu_arm/4.9_2015q3/bin/../lib/gcc/arm-none-eabi/4.9.3/../../../../arm-none-eabi/lib/armv7e-m/fpu\libc.a(lib_a-fini.o)
                              c:/siliconlabs/simplicitystudio/v4/developer/toolchains/gnu_arm/4.9_2015q3/bin/../lib/gcc/arm-none-eabi/4.9.3/../../../../arm-none-eabi/lib/armv7e-m/fpu\libc.a(lib_a-__call_atexit.o) (__libc_fini_array)
c:/siliconlabs/simplicitystudio/v4/developer/toolchains/gnu_arm/4.9_2015q3/bin/../lib/gcc/arm-none-eabi/4.9.3/../../../../arm-none-eabi/lib/armv7e-m/fpu\libc.a(lib_a-locale.o)
                              c:/siliconlabs/simplicitystudio/v4/developer/toolchains/gnu_arm/4.9_2015q3/bin/../lib/gcc/arm-none-eabi/4.9.3/../../../../arm-none-eabi/lib/armv7e-m/fpu\libc.a(lib_a-svfprintf.o) (_localeconv_r)
c:/siliconlabs/simplicitystudio/v4/developer/toolchains/gnu_arm/4.9_2015q3/bin/../lib/gcc/arm-none-eabi/4.9.3/../../../../arm-none-eabi/lib/armv7e-m/fpu\libc.a(lib_a-mallocr.o)
                              c:/siliconlabs/simplicitystudio/v4/developer/toolchains/gnu_arm/4.9_2015q3/bin/../lib/gcc/arm-none-eabi/4.9.3/../../../../arm-none-eabi/lib/armv7e-m/fpu\libc.a(lib_a-svfprintf.o) (_malloc_r)
c:/siliconlabs/simplicitystudio/v4/developer/toolchains/gnu_arm/4.9_2015q3/bin/../lib/gcc/arm-none-eabi/4.9.3/../../../../arm-none-eabi/lib/armv7e-m/fpu\libc.a(lib_a-memchr.o)
                              c:/siliconlabs/simplicitystudio/v4/developer/toolchains/gnu_arm/4.9_2015q3/bin/../lib/gcc/arm-none-eabi/4.9.3/../../../../arm-none-eabi/lib/armv7e-m/fpu\libc.a(lib_a-svfprintf.o) (memchr)
c:/siliconlabs/simplicitystudio/v4/developer/toolchains/gnu_arm/4.9_2015q3/bin/../lib/gcc/arm-none-eabi/4.9.3/../../../../arm-none-eabi/lib/armv7e-m/fpu\libc.a(lib_a-mlock.o)
                              c:/siliconlabs/simplicitystudio/v4/developer/toolchains/gnu_arm/4.9_2015q3/bin/../lib/gcc/arm-none-eabi/4.9.3/../../../../arm-none-eabi/lib/armv7e-m/fpu\libc.a(lib_a-mallocr.o) (__malloc_lock)
c:/siliconlabs/simplicitystudio/v4/developer/toolchains/gnu_arm/4.9_2015q3/bin/../lib/gcc/arm-none-eabi/4.9.3/../../../../arm-none-eabi/lib/armv7e-m/fpu\libc.a(lib_a-mprec.o)
                              c:/siliconlabs/simplicitystudio/v4/developer/toolchains/gnu_arm/4.9_2015q3/bin/../lib/gcc/arm-none-eabi/4.9.3/../../../../arm-none-eabi/lib/armv7e-m/fpu\libc.a(lib_a-dtoa.o) (_Balloc)
c:/siliconlabs/simplicitystudio/v4/developer/toolchains/gnu_arm/4.9_2015q3/bin/../lib/gcc/arm-none-eabi/4.9.3/../../../../arm-none-eabi/lib/armv7e-m/fpu\libc.a(lib_a-s_fpclassify.o)
                              c:/siliconlabs/simplicitystudio/v4/developer/toolchains/gnu_arm/4.9_2015q3/bin/../lib/gcc/arm-none-eabi/4.9.3/../../../../arm-none-eabi/lib/armv7e-m/fpu\libc.a(lib_a-svfprintf.o) (__fpclassifyd)
c:/siliconlabs/simplicitystudio/v4/developer/toolchains/gnu_arm/4.9_2015q3/bin/../lib/gcc/arm-none-eabi/4.9.3/../../../../arm-none-eabi/lib/armv7e-m/fpu\libc.a(lib_a-sbrkr.o)
                              c:/siliconlabs/simplicitystudio/v4/developer/toolchains/gnu_arm/4.9_2015q3/bin/../lib/gcc/arm-none-eabi/4.9.3/../../../../arm-none-eabi/lib/armv7e-m/fpu\libc.a(lib_a-mallocr.o) (_sbrk_r)
c:/siliconlabs/simplicitystudio/v4/developer/toolchains/gnu_arm/4.9_2015q3/bin/../lib/gcc/arm-none-eabi/4.9.3/../../../../arm-none-eabi/lib/armv7e-m/fpu\libc.a(lib_a-strcmp.o)
                              c:/siliconlabs/simplicitystudio/v4/developer/toolchains/gnu_arm/4.9_2015q3/bin/../lib/gcc/arm-none-eabi/4.9.3/../../../../arm-none-eabi/lib/armv7e-m/fpu\libc.a(lib_a-locale.o) (strcmp)
c:/siliconlabs/simplicitystudio/v4/developer/toolchains/gnu_arm/4.9_2015q3/bin/../lib/gcc/arm-none-eabi/4.9.3/../../../../arm-none-eabi/lib/armv7e-m/fpu\libc.a(lib_a-svfiprintf.o)
                              c:/siliconlabs/simplicitystudio/v4/developer/toolchains/gnu_arm/4.9_2015q3/bin/../lib/gcc/arm-none-eabi/4.9.3/../../../../arm-none-eabi/lib/armv7e-m/fpu\libc.a(lib_a-svfprintf.o) (__ssprint_r)
c:/siliconlabs/simplicitystudio/v4/developer/toolchains/gnu_arm/4.9_2015q3/bin/../lib/gcc/arm-none-eabi/4.9.3/../../../../arm-none-eabi/lib/armv7e-m/fpu\libc.a(lib_a-__atexit.o)
                              c:/siliconlabs/simplicitystudio/v4/developer/toolchains/gnu_arm/4.9_2015q3/bin/../lib/gcc/arm-none-eabi/4.9.3/../../../../arm-none-eabi/lib/armv7e-m/fpu\libc.a(lib_a-atexit.o) (__register_exitproc)
c:/siliconlabs/simplicitystudio/v4/developer/toolchains/gnu_arm/4.9_2015q3/bin/../lib/gcc/arm-none-eabi/4.9.3/../../../../arm-none-eabi/lib/armv7e-m/fpu\libc.a(lib_a-callocr.o)
                              c:/siliconlabs/simplicitystudio/v4/developer/toolchains/gnu_arm/4.9_2015q3/bin/../lib/gcc/arm-none-eabi/4.9.3/../../../../arm-none-eabi/lib/armv7e-m/fpu\libc.a(lib_a-mprec.o) (_calloc_r)
c:/siliconlabs/simplicitystudio/v4/developer/toolchains/gnu_arm/4.9_2015q3/bin/../lib/gcc/arm-none-eabi/4.9.3/../../../../arm-none-eabi/lib/armv7e-m/fpu\libc.a(lib_a-freer.o)
                              c:/siliconlabs/simplicitystudio/v4/developer/toolchains/gnu_arm/4.9_2015q3/bin/../lib/gcc/arm-none-eabi/4.9.3/../../../../arm-none-eabi/lib/armv7e-m/fpu\libc.a(lib_a-mallocr.o) (_free_r)
c:/siliconlabs/simplicitystudio/v4/developer/toolchains/gnu_arm/4.9_2015q3/bin/../lib/gcc/arm-none-eabi/4.9.3/../../../../arm-none-eabi/lib/armv7e-m/fpu\libc.a(lib_a-memmove.o)
                              c:/siliconlabs/simplicitystudio/v4/developer/toolchains/gnu_arm/4.9_2015q3/bin/../lib/gcc/arm-none-eabi/4.9.3/../../../../arm-none-eabi/lib/armv7e-m/fpu\libc.a(lib_a-svfiprintf.o) (memmove)
c:/siliconlabs/simplicitystudio/v4/developer/toolchains/gnu_arm/4.9_2015q3/bin/../lib/gcc/arm-none-eabi/4.9.3/../../../../arm-none-eabi/lib/armv7e-m/fpu\libc.a(lib_a-reallocr.o)
                              c:/siliconlabs/simplicitystudio/v4/developer/toolchains/gnu_arm/4.9_2015q3/bin/../lib/gcc/arm-none-eabi/4.9.3/../../../../arm-none-eabi/lib/armv7e-m/fpu\libc.a(lib_a-svfiprintf.o) (_realloc_r)
c:/siliconlabs/simplicitystudio/v4/developer/toolchains/gnu_arm/4.9_2015q3/bin/../lib/gcc/arm-none-eabi/4.9.3/../../../../arm-none-eabi/lib/armv7e-m/fpu\libc.a(lib_a-reent.o)
                              c:/siliconlabs/simplicitystudio/v4/developer/toolchains/gnu_arm/4.9_2015q3/bin/../lib/gcc/arm-none-eabi/4.9.3/../../../../arm-none-eabi/lib/armv7e-m/fpu\libc.a(lib_a-sbrkr.o) (errno)
c:/siliconlabs/simplicitystudio/v4/developer/toolchains/gnu_arm/4.9_2015q3/bin/../lib/gcc/arm-none-eabi/4.9.3/../../../../arm-none-eabi/lib/armv7e-m/fpu\libnosys.a(sbrk.o)
                              c:/siliconlabs/simplicitystudio/v4/developer/toolchains/gnu_arm/4.9_2015q3/bin/../lib/gcc/arm-none-eabi/4.9.3/../../../../arm-none-eabi/lib/armv7e-m/fpu\libc.a(lib_a-sbrkr.o) (_sbrk)
c:/siliconlabs/simplicitystudio/v4/developer/toolchains/gnu_arm/4.9_2015q3/bin/../lib/gcc/arm-none-eabi/4.9.3/../../../../arm-none-eabi/lib/armv7e-m/fpu\libnosys.a(_exit.o)
                              c:/siliconlabs/simplicitystudio/v4/developer/toolchains/gnu_arm/4.9_2015q3/bin/../lib/gcc/arm-none-eabi/4.9.3/../../../../arm-none-eabi/lib/armv7e-m/fpu\libc.a(lib_a-exit.o) (_exit)
c:/siliconlabs/simplicitystudio/v4/developer/toolchains/gnu_arm/4.9_2015q3/bin/../lib/gcc/arm-none-eabi/4.9.3/armv7e-m/fpu\libgcc.a(_arm_addsubdf3.o)
                              c:/siliconlabs/simplicitystudio/v4/developer/toolchains/gnu_arm/4.9_2015q3/bin/../lib/gcc/arm-none-eabi/4.9.3/../../../../arm-none-eabi/lib/armv7e-m/fpu\libc.a(lib_a-dtoa.o) (__aeabi_dsub)
c:/siliconlabs/simplicitystudio/v4/developer/toolchains/gnu_arm/4.9_2015q3/bin/../lib/gcc/arm-none-eabi/4.9.3/armv7e-m/fpu\libgcc.a(_arm_cmpdf2.o)
                              c:/siliconlabs/simplicitystudio/v4/developer/toolchains/gnu_arm/4.9_2015q3/bin/../lib/gcc/arm-none-eabi/4.9.3/../../../../arm-none-eabi/lib/armv7e-m/fpu\libc.a(lib_a-svfprintf.o) (__aeabi_dcmpeq)

Allocating common symbols
Common symbol       size              file

Ydata_FIFO          0x2               ./src/gpio.o
errno               0x4               c:/siliconlabs/simplicitystudio/v4/developer/toolchains/gnu_arm/4.9_2015q3/bin/../lib/gcc/arm-none-eabi/4.9.3/../../../../arm-none-eabi/lib/armv7e-m/fpu\libc.a(lib_a-reent.o)
msg_sender          0x4               C:\Users\Satyanarayana\SimplicityStudio\v4_workspace\soc-smartPhone_NoBuff\protocol\bluetooth_2.6\lib\EFR32BG13P\GCC\bgapi.a(bgapi_test_lib.c.obj)
dirtyRows           0x10              ./platform/middleware/glib/dmd/display/dmd_display.o
bmpHeader           0x36              ./platform/middleware/glib/glib/bmp.o
bmpPalette          0x8               ./platform/middleware/glib/glib/bmp.o
mode                0x4               ./src/cmu.o
Xdata_FIFO          0x2               ./src/gpio.o
fpReadData          0x4               ./platform/middleware/glib/glib/bmp.o
rleInfo             0xc               ./platform/middleware/glib/glib/bmp.o
Zdata_FIFO          0x2               ./src/gpio.o
bluetooth_stack_heap
                    0x1988            ./main.o

Discarded input sections

 .text          0x00000000        0x0 c:/siliconlabs/simplicitystudio/v4/developer/toolchains/gnu_arm/4.9_2015q3/bin/../lib/gcc/arm-none-eabi/4.9.3/armv7e-m/fpu/crti.o
 .data          0x00000000        0x0 c:/siliconlabs/simplicitystudio/v4/developer/toolchains/gnu_arm/4.9_2015q3/bin/../lib/gcc/arm-none-eabi/4.9.3/armv7e-m/fpu/crti.o
 .bss           0x00000000        0x0 c:/siliconlabs/simplicitystudio/v4/developer/toolchains/gnu_arm/4.9_2015q3/bin/../lib/gcc/arm-none-eabi/4.9.3/armv7e-m/fpu/crti.o
 .data          0x00000000        0x4 c:/siliconlabs/simplicitystudio/v4/developer/toolchains/gnu_arm/4.9_2015q3/bin/../lib/gcc/arm-none-eabi/4.9.3/armv7e-m/fpu/crtbegin.o
 .data          0x00000000        0x0 c:/siliconlabs/simplicitystudio/v4/developer/toolchains/gnu_arm/4.9_2015q3/bin/../lib/gcc/arm-none-eabi/4.9.3/../../../../arm-none-eabi/lib/armv7e-m/fpu/crt0.o
 .bss           0x00000000        0x0 c:/siliconlabs/simplicitystudio/v4/developer/toolchains/gnu_arm/4.9_2015q3/bin/../lib/gcc/arm-none-eabi/4.9.3/../../../../arm-none-eabi/lib/armv7e-m/fpu/crt0.o
 .ARM.extab     0x00000000        0x0 c:/siliconlabs/simplicitystudio/v4/developer/toolchains/gnu_arm/4.9_2015q3/bin/../lib/gcc/arm-none-eabi/4.9.3/../../../../arm-none-eabi/lib/armv7e-m/fpu/crt0.o
 .text          0x00000000        0x0 ./advertisement.o
 .data          0x00000000        0x0 ./advertisement.o
 .bss           0x00000000        0x0 ./advertisement.o
 .text          0x00000000        0x0 ./app.o
 .data          0x00000000        0x0 ./app.o
 .bss           0x00000000        0x0 ./app.o
 .text.gecko_cmd_system_reset
                0x00000000       0x40 ./app.o
 .text.gecko_cmd_gatt_server_send_user_write_response
                0x00000000       0x64 ./app.o
 .text.gecko_cmd_endpoint_close
                0x00000000       0x48 ./app.o
 .bss.dispPolarityInvert
                0x00000000        0x4 ./app.o
 .text.appHandleEvents
                0x00000000      0x140 ./app.o
 .bss.boot_to_dfu.9326
                0x00000000        0x1 ./app.o
 .text          0x00000000        0x0 ./app_hw.o
 .data          0x00000000        0x0 ./app_hw.o
 .bss           0x00000000        0x0 ./app_hw.o
 .text.appHwReadTm
                0x00000000       0x2c ./app_hw.o
 .text          0x00000000        0x0 ./app_ui.o
 .data          0x00000000        0x0 ./app_ui.o
 .bss           0x00000000        0x0 ./app_ui.o
 .bss.appUiHeaderString
                0x00000000       0x40 ./app_ui.o
 .text          0x00000000        0x0 ./application_properties.o
 .data          0x00000000        0x0 ./application_properties.o
 .bss           0x00000000        0x0 ./application_properties.o
 .text          0x00000000        0x0 ./beacon.o
 .data          0x00000000        0x0 ./beacon.o
 .bss           0x00000000        0x0 ./beacon.o
 .text          0x00000000        0x0 ./gatt_db.o
 .data          0x00000000        0x0 ./gatt_db.o
 .bss           0x00000000        0x0 ./gatt_db.o
 .data.bg_gattdb
                0x00000000        0x4 ./gatt_db.o
 .text          0x00000000        0x0 ./graphics.o
 .data          0x00000000        0x0 ./graphics.o
 .bss           0x00000000        0x0 ./graphics.o
 .text.graphInit
                0x00000000       0x64 ./graphics.o
 .text          0x00000000        0x0 ./htm.o
 .data          0x00000000        0x0 ./htm.o
 .bss           0x00000000        0x0 ./htm.o
 .text          0x00000000        0x0 ./ia.o
 .data          0x00000000        0x0 ./ia.o
 .bss           0x00000000        0x0 ./ia.o
 .text          0x00000000        0x0 ./init_app.o
 .data          0x00000000        0x0 ./init_app.o
 .bss           0x00000000        0x0 ./init_app.o
 .rodata        0x00000000       0x20 ./init_app.o
 .text.initApp  0x00000000       0x54 ./init_app.o
 .debug_info    0x00000000      0x38d ./init_app.o
 .debug_abbrev  0x00000000       0xe5 ./init_app.o
 .debug_loc     0x00000000       0x50 ./init_app.o
 .debug_aranges
                0x00000000       0x20 ./init_app.o
 .debug_ranges  0x00000000       0x10 ./init_app.o
 .debug_line    0x00000000      0x2dd ./init_app.o
 .debug_str     0x00000000      0x532 ./init_app.o
 .comment       0x00000000       0x71 ./init_app.o
 .debug_frame   0x00000000       0x38 ./init_app.o
 .ARM.attributes
                0x00000000       0x39 ./init_app.o
 .text          0x00000000        0x0 ./init_board.o
 .data          0x00000000        0x0 ./init_board.o
 .bss           0x00000000        0x0 ./init_board.o
 .text.initBoard
                0x00000000       0x24 ./init_board.o
 .debug_info    0x00000000      0x423 ./init_board.o
 .debug_abbrev  0x00000000       0xc3 ./init_board.o
 .debug_loc     0x00000000       0x2c ./init_board.o
 .debug_aranges
                0x00000000       0x20 ./init_board.o
 .debug_ranges  0x00000000       0x10 ./init_board.o
 .debug_line    0x00000000      0x263 ./init_board.o
 .debug_str     0x00000000      0x58e ./init_board.o
 .comment       0x00000000       0x71 ./init_board.o
 .debug_frame   0x00000000       0x2c ./init_board.o
 .ARM.attributes
                0x00000000       0x39 ./init_board.o
 .text          0x00000000        0x0 ./init_mcu.o
 .data          0x00000000        0x0 ./init_mcu.o
 .bss           0x00000000        0x0 ./init_mcu.o
 .text.CHIP_Init
                0x00000000       0x50 ./init_mcu.o
 .rodata        0x00000000       0x38 ./init_mcu.o
 .text.initMcu  0x00000000       0x58 ./init_mcu.o
 .text.initMcu_clocks
                0x00000000       0xa8 ./init_mcu.o
 .debug_info    0x00000000      0x866 ./init_mcu.o
 .debug_abbrev  0x00000000      0x138 ./init_mcu.o
 .debug_loc     0x00000000       0xe4 ./init_mcu.o
 .debug_aranges
                0x00000000       0x30 ./init_mcu.o
 .debug_ranges  0x00000000       0x20 ./init_mcu.o
 .debug_line    0x00000000      0x2b9 ./init_mcu.o
 .debug_str     0x00000000      0xb51 ./init_mcu.o
 .comment       0x00000000       0x71 ./init_mcu.o
 .debug_frame   0x00000000       0x80 ./init_mcu.o
 .ARM.attributes
                0x00000000       0x39 ./init_mcu.o
 .text          0x00000000        0x0 ./main.o
 .data          0x00000000        0x0 ./main.o
 .bss           0x00000000        0x0 ./main.o
 .text.gecko_cmd_hardware_set_soft_timer
                0x00000000       0x60 ./main.o
 .bss.dispPolarityInvert
                0x00000000        0x4 ./main.o
 .text.rtcIntCallbackRegister
                0x00000000       0x34 ./main.o
 .text          0x00000000        0x0 ./pti.o
 .data          0x00000000        0x0 ./pti.o
 .bss           0x00000000        0x0 ./pti.o
 .rodata        0x00000000       0x24 ./pti.o
 .text.configEnablePti
                0x00000000       0x54 ./pti.o
 .debug_info    0x00000000      0x273 ./pti.o
 .debug_abbrev  0x00000000       0xd3 ./pti.o
 .debug_loc     0x00000000       0x50 ./pti.o
 .debug_aranges
                0x00000000       0x20 ./pti.o
 .debug_ranges  0x00000000       0x10 ./pti.o
 .debug_line    0x00000000      0x2f8 ./pti.o
 .debug_str     0x00000000      0x413 ./pti.o
 .comment       0x00000000       0x71 ./pti.o
 .debug_frame   0x00000000       0x38 ./pti.o
 .ARM.attributes
                0x00000000       0x39 ./pti.o
 .text          0x00000000        0x0 ./emlib/em_adc.o
 .data          0x00000000        0x0 ./emlib/em_adc.o
 .bss           0x00000000        0x0 ./emlib/em_adc.o
 .text.BUS_RegBitWrite
                0x00000000       0x2c ./emlib/em_adc.o
 .text.BUS_RegMaskedSet
                0x00000000       0x24 ./emlib/em_adc.o
 .text.BUS_RegMaskedClear
                0x00000000       0x24 ./emlib/em_adc.o
 .text.BUS_RegMaskedWrite
                0x00000000       0x24 ./emlib/em_adc.o
 .text.ADC_LoadDevinfoCal
                0x00000000      0x1b8 ./emlib/em_adc.o
 .text.ADC_Init
                0x00000000       0x84 ./emlib/em_adc.o
 .text.ADC_ScanInputClear
                0x00000000       0x28 ./emlib/em_adc.o
 .text.ADC_ScanSingleEndedInputAdd
                0x00000000       0x94 ./emlib/em_adc.o
 .text.ADC_ScanDifferentialInputAdd
                0x00000000      0x180 ./emlib/em_adc.o
 .text.ADC_InitScan
                0x00000000      0x114 ./emlib/em_adc.o
 .text.ADC_InitSingle
                0x00000000      0x150 ./emlib/em_adc.o
 .text.ADC_DataIdScanGet
                0x00000000       0x2c ./emlib/em_adc.o
 .text.ADC_PrescaleCalc
                0x00000000       0x64 ./emlib/em_adc.o
 .text.ADC_Reset
                0x00000000       0x98 ./emlib/em_adc.o
 .text.ADC_TimebaseCalc
                0x00000000       0x50 ./emlib/em_adc.o
 .debug_info    0x00000000     0x1c43 ./emlib/em_adc.o
 .debug_abbrev  0x00000000      0x20b ./emlib/em_adc.o
 .debug_loc     0x00000000      0x504 ./emlib/em_adc.o
 .debug_aranges
                0x00000000       0x90 ./emlib/em_adc.o
 .debug_ranges  0x00000000       0x80 ./emlib/em_adc.o
 .debug_line    0x00000000      0x4cf ./emlib/em_adc.o
 .debug_str     0x00000000     0x2c40 ./emlib/em_adc.o
 .comment       0x00000000       0x71 ./emlib/em_adc.o
 .debug_frame   0x00000000      0x248 ./emlib/em_adc.o
 .ARM.attributes
                0x00000000       0x39 ./emlib/em_adc.o
 .text          0x00000000        0x0 ./emlib/em_cmu.o
 .data          0x00000000        0x0 ./emlib/em_cmu.o
 .bss           0x00000000        0x0 ./emlib/em_cmu.o
 .rodata.hfrcoCtrlTable
                0x00000000      0x150 ./emlib/em_cmu.o
 .text.CMU_AUXHFRCOBandGet
                0x00000000       0x18 ./emlib/em_cmu.o
 .text.CMU_Calibrate
                0x00000000       0x88 ./emlib/em_cmu.o
 .text.CMU_CalibrateConfig
                0x00000000       0xd4 ./emlib/em_cmu.o
 .text.CMU_CalibrateCountGet
                0x00000000       0x38 ./emlib/em_cmu.o
 .text.CMU_ClockDivGet
                0x00000000       0x1c ./emlib/em_cmu.o
 .text.CMU_ClockPrescGet
                0x00000000      0x184 ./emlib/em_cmu.o
 .text.CMU_DPLLLock
                0x00000000      0x1fc ./emlib/em_cmu.o
 .text.CMU_FreezeEnable
                0x00000000       0x3c ./emlib/em_cmu.o
 .text.CMU_HFRCODevinfoGet
                0x00000000       0xdc ./emlib/em_cmu.o
 .text.CMU_HFRCOBandSet
                0x00000000      0x110 ./emlib/em_cmu.o
 .text.CMU_LCDClkFDIVGet
                0x00000000       0x10 ./emlib/em_cmu.o
 .text.CMU_LCDClkFDIVSet
                0x00000000       0x14 ./emlib/em_cmu.o
 .text.CMU_PCNTClockExternalGet
                0x00000000       0x40 ./emlib/em_cmu.o
 .text.CMU_PCNTClockExternalSet
                0x00000000       0x34 ./emlib/em_cmu.o
 .text          0x00000000        0x0 ./emlib/em_crypto.o
 .data          0x00000000        0x0 ./emlib/em_crypto.o
 .bss           0x00000000        0x0 ./emlib/em_crypto.o
 .text.BUS_RegBitWrite
                0x00000000       0x2c ./emlib/em_crypto.o
 .text.CRYPTO_ResultWidthSet
                0x00000000       0x28 ./emlib/em_crypto.o
 .text.CRYPTO_BurstToCrypto
                0x00000000       0x3c ./emlib/em_crypto.o
 .text.CRYPTO_BurstFromCrypto
                0x00000000       0x40 ./emlib/em_crypto.o
 .text.CRYPTO_DataWrite
                0x00000000       0x18 ./emlib/em_crypto.o
 .text.CRYPTO_DataRead
                0x00000000       0x18 ./emlib/em_crypto.o
 .text.CRYPTO_DDataWrite
                0x00000000       0x24 ./emlib/em_crypto.o
 .text.CRYPTO_DDataRead
                0x00000000       0x24 ./emlib/em_crypto.o
 .text.CRYPTO_QDataWrite
                0x00000000       0x3c ./emlib/em_crypto.o
 .text.CRYPTO_KeyBufWrite
                0x00000000       0x4c ./emlib/em_crypto.o
 .text.CRYPTO_CarryIsSet
                0x00000000       0x28 ./emlib/em_crypto.o
 .text.CRYPTO_InstructionSequenceExecute
                0x00000000       0x1c ./emlib/em_crypto.o
 .text.CRYPTO_ModulusSet
                0x00000000       0x84 ./emlib/em_crypto.o
 .text.CRYPTO_KeyRead
                0x00000000       0x38 ./emlib/em_crypto.o
 .text.CRYPTO_SHA_1
                0x00000000      0x1f8 ./emlib/em_crypto.o
 .text.CRYPTO_SHA_256
                0x00000000      0x1c4 ./emlib/em_crypto.o
 .text.cryptoBigintZeroize
                0x00000000       0x2c ./emlib/em_crypto.o
 .text.cryptoBigintIncrement
                0x00000000       0x40 ./emlib/em_crypto.o
 .text.CRYPTO_Mul
                0x00000000      0x164 ./emlib/em_crypto.o
 .text.CRYPTO_AES_CBC128
                0x00000000       0x38 ./emlib/em_crypto.o
 .text.CRYPTO_AES_CBC256
                0x00000000       0x38 ./emlib/em_crypto.o
 .text.CRYPTO_AES_CFB128
                0x00000000       0x38 ./emlib/em_crypto.o
 .text.CRYPTO_AES_CFB256
                0x00000000       0x38 ./emlib/em_crypto.o
 .text.CRYPTO_AES_CTR128
                0x00000000       0x38 ./emlib/em_crypto.o
 .text.CRYPTO_AES_CTR256
                0x00000000       0x38 ./emlib/em_crypto.o
 .text.CRYPTO_AES_CTRUpdate32Bit
                0x00000000       0x30 ./emlib/em_crypto.o
 .text.CRYPTO_AES_DecryptKey128
                0x00000000       0x40 ./emlib/em_crypto.o
 .text.CRYPTO_AES_DecryptKey256
                0x00000000       0x64 ./emlib/em_crypto.o
 .text.CRYPTO_AES_ECB128
                0x00000000       0x34 ./emlib/em_crypto.o
 .text.CRYPTO_AES_ECB256
                0x00000000       0x34 ./emlib/em_crypto.o
 .text.CRYPTO_AES_OFB128
                0x00000000       0x34 ./emlib/em_crypto.o
 .text.CRYPTO_AES_OFB256
                0x00000000       0x34 ./emlib/em_crypto.o
 .text.CRYPTO_AES_CBCx
                0x00000000       0x94 ./emlib/em_crypto.o
 .text.CRYPTO_AES_CFBx
                0x00000000       0x94 ./emlib/em_crypto.o
 .text.CRYPTO_AES_CTRx
                0x00000000       0x74 ./emlib/em_crypto.o
 .text.CRYPTO_AES_ECBx
                0x00000000       0x58 ./emlib/em_crypto.o
 .text.CRYPTO_AES_OFBx
                0x00000000       0x5c ./emlib/em_crypto.o
 .text.CRYPTO_AES_ProcessLoop
                0x00000000       0x50 ./emlib/em_crypto.o
 .debug_info    0x00000000     0x166b ./emlib/em_crypto.o
 .debug_abbrev  0x00000000      0x256 ./emlib/em_crypto.o
 .debug_loc     0x00000000      0xc5c ./emlib/em_crypto.o
 .debug_aranges
                0x00000000      0x148 ./emlib/em_crypto.o
 .debug_ranges  0x00000000      0x138 ./emlib/em_crypto.o
 .debug_line    0x00000000      0x72d ./emlib/em_crypto.o
 .debug_str     0x00000000      0xa6d ./emlib/em_crypto.o
 .comment       0x00000000       0x71 ./emlib/em_crypto.o
 .debug_frame   0x00000000      0x5c8 ./emlib/em_crypto.o
 .ARM.attributes
                0x00000000       0x39 ./emlib/em_crypto.o
 .text          0x00000000        0x0 ./emlib/em_gpio.o
 .data          0x00000000        0x0 ./emlib/em_gpio.o
 .bss           0x00000000        0x0 ./emlib/em_gpio.o
 .text.GPIO_EM4SetPinRetention
                0x00000000       0x3c ./emlib/em_gpio.o
 .text.GPIO_IntClear
                0x00000000       0x20 ./emlib/em_gpio.o
 .text.GPIO_DbgLocationSet
                0x00000000       0x14 ./emlib/em_gpio.o
 .text.GPIO_DriveStrengthSet
                0x00000000       0x60 ./emlib/em_gpio.o
 .text.GPIO_PinModeGet
                0x00000000       0x84 ./emlib/em_gpio.o
 .text.GPIO_EM4EnablePinWakeup
                0x00000000       0x58 ./emlib/em_gpio.o
 .text          0x00000000        0x0 ./emlib/em_i2c.o
 .data          0x00000000        0x0 ./emlib/em_i2c.o
 .bss           0x00000000        0x0 ./emlib/em_i2c.o
 .text.BUS_RegBitWrite
                0x00000000       0x2c ./emlib/em_i2c.o
 .text.BUS_RegMaskedSet
                0x00000000       0x24 ./emlib/em_i2c.o
 .text.BUS_RegMaskedClear
                0x00000000       0x24 ./emlib/em_i2c.o
 .text.BUS_RegMaskedWrite
                0x00000000       0x24 ./emlib/em_i2c.o
 .rodata.i2cNSum
                0x00000000        0x4 ./emlib/em_i2c.o
 .text.I2C_BusFreqGet
                0x00000000       0x44 ./emlib/em_i2c.o
 .text.I2C_BusFreqSet
                0x00000000       0xfc ./emlib/em_i2c.o
 .text.I2C_Enable
                0x00000000       0x3c ./emlib/em_i2c.o
 .text.I2C_Init
                0x00000000       0x78 ./emlib/em_i2c.o
 .text.I2C_Reset
                0x00000000       0x3c ./emlib/em_i2c.o
 .text          0x00000000        0x0 ./emlib/em_ldma.o
 .data          0x00000000        0x0 ./emlib/em_ldma.o
 .bss           0x00000000        0x0 ./emlib/em_ldma.o
 .text.NVIC_EnableIRQ
                0x00000000       0x2c ./emlib/em_ldma.o
 .text.NVIC_DisableIRQ
                0x00000000       0x30 ./emlib/em_ldma.o
 .text.NVIC_ClearPendingIRQ
                0x00000000       0x30 ./emlib/em_ldma.o
 .text.NVIC_SetPriority
                0x00000000       0x4c ./emlib/em_ldma.o
 .text.BUS_RegBitWrite
                0x00000000       0x2c ./emlib/em_ldma.o
 .text.BUS_RegMaskedClear
                0x00000000       0x24 ./emlib/em_ldma.o
 .text.LDMA_DeInit
                0x00000000       0x28 ./emlib/em_ldma.o
 .text.LDMA_EnableChannelRequest
                0x00000000       0x2c ./emlib/em_ldma.o
 .text.LDMA_Init
                0x00000000       0x70 ./emlib/em_ldma.o
 .text.LDMA_StartTransfer
                0x00000000      0x150 ./emlib/em_ldma.o
 .text.LDMA_StopTransfer
                0x00000000       0x44 ./emlib/em_ldma.o
 .text.LDMA_TransferDone
                0x00000000       0x50 ./emlib/em_ldma.o
 .text.LDMA_TransferRemainingCount
                0x00000000       0x80 ./emlib/em_ldma.o
 .debug_info    0x00000000     0x11ad ./emlib/em_ldma.o
 .debug_abbrev  0x00000000      0x264 ./emlib/em_ldma.o
 .debug_loc     0x00000000      0x434 ./emlib/em_ldma.o
 .debug_aranges
                0x00000000       0x80 ./emlib/em_ldma.o
 .debug_ranges  0x00000000       0x70 ./emlib/em_ldma.o
 .debug_line    0x00000000      0x40d ./emlib/em_ldma.o
 .debug_str     0x00000000      0xbd1 ./emlib/em_ldma.o
 .comment       0x00000000       0x71 ./emlib/em_ldma.o
 .debug_frame   0x00000000      0x1f4 ./emlib/em_ldma.o
 .ARM.attributes
                0x00000000       0x39 ./emlib/em_ldma.o
 .text          0x00000000        0x0 ./emlib/em_letimer.o
 .data          0x00000000        0x0 ./emlib/em_letimer.o
 .bss           0x00000000        0x0 ./emlib/em_letimer.o
 .text.LETIMER_CompareGet
                0x00000000       0x50 ./emlib/em_letimer.o
 .text.LETIMER_Enable
                0x00000000       0x2c ./emlib/em_letimer.o
 .text.LETIMER_RepeatGet
                0x00000000       0x50 ./emlib/em_letimer.o
 .text.LETIMER_RepeatSet
                0x00000000       0x58 ./emlib/em_letimer.o
 .text.LETIMER_Reset
                0x00000000       0x44 ./emlib/em_letimer.o
 .text          0x00000000        0x0 ./emlib/em_leuart.o
 .data          0x00000000        0x0 ./emlib/em_leuart.o
 .bss           0x00000000        0x0 ./emlib/em_leuart.o
 .text.LEUART_Sync
                0x00000000       0x30 ./emlib/em_leuart.o
 .text.LEUART_BaudrateCalc
                0x00000000       0x60 ./emlib/em_leuart.o
 .text.LEUART_BaudrateGet
                0x00000000       0x40 ./emlib/em_leuart.o
 .text.LEUART_BaudrateSet
                0x00000000       0x6c ./emlib/em_leuart.o
 .text.LEUART_Enable
                0x00000000       0x3c ./emlib/em_leuart.o
 .text.LEUART_FreezeEnable
                0x00000000       0x34 ./emlib/em_leuart.o
 .text.LEUART_Init
                0x00000000       0x68 ./emlib/em_leuart.o
 .text.LEUART_Reset
                0x00000000       0x5c ./emlib/em_leuart.o
 .text.LEUART_Rx
                0x00000000       0x28 ./emlib/em_leuart.o
 .text.LEUART_RxExt
                0x00000000       0x28 ./emlib/em_leuart.o
 .text.LEUART_Tx
                0x00000000       0x30 ./emlib/em_leuart.o
 .text.LEUART_TxExt
                0x00000000       0x30 ./emlib/em_leuart.o
 .text.LEUART_TxDmaInEM2Enable
                0x00000000       0x3c ./emlib/em_leuart.o
 .text.LEUART_RxDmaInEM2Enable
                0x00000000       0x3c ./emlib/em_leuart.o
 .debug_info    0x00000000      0x864 ./emlib/em_leuart.o
 .debug_abbrev  0x00000000      0x1e2 ./emlib/em_leuart.o
 .debug_loc     0x00000000      0x49c ./emlib/em_leuart.o
 .debug_aranges
                0x00000000       0x88 ./emlib/em_leuart.o
 .debug_ranges  0x00000000       0x78 ./emlib/em_leuart.o
 .debug_line    0x00000000      0x3d3 ./emlib/em_leuart.o
 .debug_str     0x00000000      0x7e5 ./emlib/em_leuart.o
 .comment       0x00000000       0x71 ./emlib/em_leuart.o
 .debug_frame   0x00000000      0x21c ./emlib/em_leuart.o
 .ARM.attributes
                0x00000000       0x39 ./emlib/em_leuart.o
 .text          0x00000000        0x0 ./emlib/em_msc.o
 .data          0x00000000        0x0 ./emlib/em_msc.o
 .bss           0x00000000        0x0 ./emlib/em_msc.o
 .ram           0x00000000      0x404 ./emlib/em_msc.o
 .text.MSC_Init
                0x00000000       0x30 ./emlib/em_msc.o
 .text.MSC_Deinit
                0x00000000       0x24 ./emlib/em_msc.o
 .text.MSC_ExecConfigSet
                0x00000000       0x94 ./emlib/em_msc.o
 .debug_info    0x00000000      0x9bb ./emlib/em_msc.o
 .debug_abbrev  0x00000000      0x1f8 ./emlib/em_msc.o
 .debug_loc     0x00000000      0x364 ./emlib/em_msc.o
 .debug_aranges
                0x00000000       0x70 ./emlib/em_msc.o
 .debug_ranges  0x00000000       0x60 ./emlib/em_msc.o
 .debug_line    0x00000000      0x46f ./emlib/em_msc.o
 .debug_str     0x00000000      0x6e2 ./emlib/em_msc.o
 .comment       0x00000000       0x71 ./emlib/em_msc.o
 .debug_frame   0x00000000      0x198 ./emlib/em_msc.o
 .ARM.attributes
                0x00000000       0x39 ./emlib/em_msc.o
 .text          0x00000000        0x0 ./emlib/em_rmu.o
 .data          0x00000000        0x0 ./emlib/em_rmu.o
 .bss           0x00000000        0x0 ./emlib/em_rmu.o
 .text.SL_CTZ   0x00000000       0x28 ./emlib/em_rmu.o
 .rodata.resetCauseMasks
                0x00000000       0x48 ./emlib/em_rmu.o
 .text.RMU_ResetControl
                0x00000000       0x38 ./emlib/em_rmu.o
 .text.RMU_ResetCauseClear
                0x00000000       0x18 ./emlib/em_rmu.o
 .text.RMU_ResetCauseGet
                0x00000000       0xb0 ./emlib/em_rmu.o
 .debug_info    0x00000000      0x31f ./emlib/em_rmu.o
 .debug_abbrev  0x00000000      0x1b5 ./emlib/em_rmu.o
 .debug_loc     0x00000000      0x14c ./emlib/em_rmu.o
 .debug_aranges
                0x00000000       0x38 ./emlib/em_rmu.o
 .debug_ranges  0x00000000       0x28 ./emlib/em_rmu.o
 .debug_line    0x00000000      0x2ed ./emlib/em_rmu.o
 .debug_str     0x00000000      0x3cb ./emlib/em_rmu.o
 .comment       0x00000000       0x71 ./emlib/em_rmu.o
 .debug_frame   0x00000000       0xa4 ./emlib/em_rmu.o
 .ARM.attributes
                0x00000000       0x39 ./emlib/em_rmu.o
 .text          0x00000000        0x0 ./emlib/em_rtcc.o
 .data          0x00000000        0x0 ./emlib/em_rtcc.o
 .bss           0x00000000        0x0 ./emlib/em_rtcc.o
 .text.RTCC_Unlock
                0x00000000       0x68 ./emlib/em_rtcc.o
 .text.BUS_RegBitWrite
                0x00000000       0x2c ./emlib/em_rtcc.o
 .text.RTCC_ChannelInit
                0x00000000       0x58 ./emlib/em_rtcc.o
 .text.RTCC_Enable
                0x00000000       0x20 ./emlib/em_rtcc.o
 .text.RTCC_Reset
                0x00000000       0x94 ./emlib/em_rtcc.o
 .text.RTCC_StatusClear
                0x00000000       0x24 ./emlib/em_rtcc.o
 .text          0x00000000        0x0 ./emlib/em_system.o
 .data          0x00000000        0x0 ./emlib/em_system.o
 .bss           0x00000000        0x0 ./emlib/em_system.o
 .text.SYSTEM_ChipRevisionGet
                0x00000000       0x74 ./emlib/em_system.o
 .text.SYSTEM_GetCalibrationValue
                0x00000000       0x4c ./emlib/em_system.o
 .debug_info    0x00000000      0x276 ./emlib/em_system.o
 .debug_abbrev  0x00000000      0x109 ./emlib/em_system.o
 .debug_loc     0x00000000       0xb8 ./emlib/em_system.o
 .debug_aranges
                0x00000000       0x28 ./emlib/em_system.o
 .debug_ranges  0x00000000       0x18 ./emlib/em_system.o
 .debug_line    0x00000000      0x291 ./emlib/em_system.o
 .debug_str     0x00000000      0x305 ./emlib/em_system.o
 .comment       0x00000000       0x71 ./emlib/em_system.o
 .debug_frame   0x00000000       0x60 ./emlib/em_system.o
 .ARM.attributes
                0x00000000       0x39 ./emlib/em_system.o
 .text          0x00000000        0x0 ./emlib/em_usart.o
 .data          0x00000000        0x0 ./emlib/em_usart.o
 .bss           0x00000000        0x0 ./emlib/em_usart.o
 .text.USART_BaudrateAsyncSet
                0x00000000       0xb0 ./emlib/em_usart.o
 .text.USART_BaudrateCalc
                0x00000000      0x11c ./emlib/em_usart.o
 .text.USART_BaudrateGet
                0x00000000       0x50 ./emlib/em_usart.o
 .text.USART_InitAsync
                0x00000000       0xe0 ./emlib/em_usart.o
 .text.USARTn_InitIrDA
                0x00000000       0x98 ./emlib/em_usart.o
 .text.USART_InitI2s
                0x00000000       0x7c ./emlib/em_usart.o
 .text.USART_InitPrsTrigger
                0x00000000       0x64 ./emlib/em_usart.o
 .text.USART_Rx
                0x00000000       0x28 ./emlib/em_usart.o
 .text.USART_RxDouble
                0x00000000       0x28 ./emlib/em_usart.o
 .text.USART_RxDoubleExt
                0x00000000       0x28 ./emlib/em_usart.o
 .text.USART_RxExt
                0x00000000       0x28 ./emlib/em_usart.o
 .text.USART_Tx
                0x00000000       0x2c ./emlib/em_usart.o
 .text.USART_TxDouble
                0x00000000       0x2c ./emlib/em_usart.o
 .text.USART_TxDoubleExt
                0x00000000       0x28 ./emlib/em_usart.o
 .text.USART_TxExt
                0x00000000       0x2c ./emlib/em_usart.o
 .text          0x00000000        0x0 ./hardware/kit/common/bsp/bsp_stk.o
 .data          0x00000000        0x0 ./hardware/kit/common/bsp/bsp_stk.o
 .bss           0x00000000        0x0 ./hardware/kit/common/bsp/bsp_stk.o
 .text.BSP_Disable
                0x00000000       0x10 ./hardware/kit/common/bsp/bsp_stk.o
 .text.BSP_EbiInit
                0x00000000       0x14 ./hardware/kit/common/bsp/bsp_stk.o
 .text.BSP_EbiDeInit
                0x00000000       0x14 ./hardware/kit/common/bsp/bsp_stk.o
 .text.BSP_IOExpGetDeviceId
                0x00000000       0x10 ./hardware/kit/common/bsp/bsp_stk.o
 .text.BSP_Init
                0x00000000       0x18 ./hardware/kit/common/bsp/bsp_stk.o
 .text.BSP_PeripheralAccess
                0x00000000       0x1c ./hardware/kit/common/bsp/bsp_stk.o
 .text.BSP_CurrentGet
                0x00000000       0x18 ./hardware/kit/common/bsp/bsp_stk.o
 .text.BSP_VoltageGet
                0x00000000       0x18 ./hardware/kit/common/bsp/bsp_stk.o
 .debug_info    0x00000000      0x1fd ./hardware/kit/common/bsp/bsp_stk.o
 .debug_abbrev  0x00000000       0xe0 ./hardware/kit/common/bsp/bsp_stk.o
 .debug_loc     0x00000000      0x238 ./hardware/kit/common/bsp/bsp_stk.o
 .debug_aranges
                0x00000000       0x58 ./hardware/kit/common/bsp/bsp_stk.o
 .debug_ranges  0x00000000       0x48 ./hardware/kit/common/bsp/bsp_stk.o
 .debug_line    0x00000000      0x244 ./hardware/kit/common/bsp/bsp_stk.o
 .debug_str     0x00000000      0x31b ./hardware/kit/common/bsp/bsp_stk.o
 .comment       0x00000000       0x71 ./hardware/kit/common/bsp/bsp_stk.o
 .debug_frame   0x00000000      0x11c ./hardware/kit/common/bsp/bsp_stk.o
 .ARM.attributes
                0x00000000       0x39 ./hardware/kit/common/bsp/bsp_stk.o
 .text          0x00000000        0x0 ./hardware/kit/common/bsp/bsp_stk_leds.o
 .data          0x00000000        0x0 ./hardware/kit/common/bsp/bsp_stk_leds.o
 .bss           0x00000000        0x0 ./hardware/kit/common/bsp/bsp_stk_leds.o
 .text.BUS_RegBitRead
                0x00000000       0x2c ./hardware/kit/common/bsp/bsp_stk_leds.o
 .text.GPIO_PinOutGet
                0x00000000       0x54 ./hardware/kit/common/bsp/bsp_stk_leds.o
 .text.GPIO_PinOutToggle
                0x00000000       0x58 ./hardware/kit/common/bsp/bsp_stk_leds.o
 .text.BSP_LedsInit
                0x00000000       0x5c ./hardware/kit/common/bsp/bsp_stk_leds.o
 .text.BSP_LedsGet
                0x00000000       0x68 ./hardware/kit/common/bsp/bsp_stk_leds.o
 .text.BSP_LedsSet
                0x00000000       0x74 ./hardware/kit/common/bsp/bsp_stk_leds.o
 .text.BSP_LedGet
                0x00000000       0x48 ./hardware/kit/common/bsp/bsp_stk_leds.o
 .text.BSP_LedToggle
                0x00000000       0x44 ./hardware/kit/common/bsp/bsp_stk_leds.o
 .text          0x00000000        0x0 ./hardware/kit/common/drivers/display.o
 .data          0x00000000        0x0 ./hardware/kit/common/drivers/display.o
 .bss           0x00000000        0x0 ./hardware/kit/common/drivers/display.o
 .bss.deviceTable
                0x00000000       0x30 ./hardware/kit/common/drivers/display.o
 .bss.moduleInitialized
                0x00000000        0x1 ./hardware/kit/common/drivers/display.o
 .bss.devicesRegistered
                0x00000000        0x4 ./hardware/kit/common/drivers/display.o
 .data.pDisplayDeviceDriverInitFunctions
                0x00000000        0x8 ./hardware/kit/common/drivers/display.o
 .text.DISPLAY_Init
                0x00000000       0x54 ./hardware/kit/common/drivers/display.o
 .text.DISPLAY_DriverRefresh
                0x00000000       0x94 ./hardware/kit/common/drivers/display.o
 .text.DISPLAY_DeviceGet
                0x00000000       0x60 ./hardware/kit/common/drivers/display.o
 .text.DISPLAY_DeviceRegister
                0x00000000       0x6c ./hardware/kit/common/drivers/display.o
 .debug_info    0x00000000      0x466 ./hardware/kit/common/drivers/display.o
 .debug_abbrev  0x00000000      0x10d ./hardware/kit/common/drivers/display.o
 .debug_loc     0x00000000      0x140 ./hardware/kit/common/drivers/display.o
 .debug_aranges
                0x00000000       0x38 ./hardware/kit/common/drivers/display.o
 .debug_ranges  0x00000000       0x28 ./hardware/kit/common/drivers/display.o
 .debug_line    0x00000000      0x298 ./hardware/kit/common/drivers/display.o
 .debug_str     0x00000000      0x4f0 ./hardware/kit/common/drivers/display.o
 .comment       0x00000000       0x71 ./hardware/kit/common/drivers/display.o
 .debug_frame   0x00000000       0xa0 ./hardware/kit/common/drivers/display.o
 .ARM.attributes
                0x00000000       0x39 ./hardware/kit/common/drivers/display.o
 .text          0x00000000        0x0 ./hardware/kit/common/drivers/displayls013b7dh03.o
 .data          0x00000000        0x0 ./hardware/kit/common/drivers/displayls013b7dh03.o
 .bss           0x00000000        0x0 ./hardware/kit/common/drivers/displayls013b7dh03.o
 .bss.lcdPolarity
                0x00000000        0x1 ./hardware/kit/common/drivers/displayls013b7dh03.o
 .bss.pixelMatrixPoolBase
                0x00000000      0x800 ./hardware/kit/common/drivers/displayls013b7dh03.o
 .data.pixelMatrixPool
                0x00000000        0x4 ./hardware/kit/common/drivers/displayls013b7dh03.o
 .rodata        0x00000000       0x15 ./hardware/kit/common/drivers/displayls013b7dh03.o
 .text.DISPLAY_Ls013b7dh03Init
                0x00000000       0xdc ./hardware/kit/common/drivers/displayls013b7dh03.o
 .text.DriverRefresh
                0x00000000       0x20 ./hardware/kit/common/drivers/displayls013b7dh03.o
 .text.DisplayEnable
                0x00000000       0x30 ./hardware/kit/common/drivers/displayls013b7dh03.o
 .text.DisplayClear
                0x00000000       0x48 ./hardware/kit/common/drivers/displayls013b7dh03.o
 .text.DisplayPolarityInverse
                0x00000000       0x14 ./hardware/kit/common/drivers/displayls013b7dh03.o
 .text.PixelMatrixAllocate
                0x00000000       0x70 ./hardware/kit/common/drivers/displayls013b7dh03.o
 .text.PixelMatrixFree
                0x00000000       0x1c ./hardware/kit/common/drivers/displayls013b7dh03.o
 .text.PixelMatrixClear
                0x00000000       0x40 ./hardware/kit/common/drivers/displayls013b7dh03.o
 .text.PixelMatrixDraw
                0x00000000       0xb8 ./hardware/kit/common/drivers/displayls013b7dh03.o
 .debug_info    0x00000000      0x66b ./hardware/kit/common/drivers/displayls013b7dh03.o
 .debug_abbrev  0x00000000      0x1a2 ./hardware/kit/common/drivers/displayls013b7dh03.o
 .debug_loc     0x00000000      0x2c6 ./hardware/kit/common/drivers/displayls013b7dh03.o
 .debug_aranges
                0x00000000       0x60 ./hardware/kit/common/drivers/displayls013b7dh03.o
 .debug_ranges  0x00000000       0x50 ./hardware/kit/common/drivers/displayls013b7dh03.o
 .debug_line    0x00000000      0x3c3 ./hardware/kit/common/drivers/displayls013b7dh03.o
 .debug_str     0x00000000      0x595 ./hardware/kit/common/drivers/displayls013b7dh03.o
 .comment       0x00000000       0x71 ./hardware/kit/common/drivers/displayls013b7dh03.o
 .debug_frame   0x00000000      0x154 ./hardware/kit/common/drivers/displayls013b7dh03.o
 .ARM.attributes
                0x00000000       0x39 ./hardware/kit/common/drivers/displayls013b7dh03.o
 .text          0x00000000        0x0 ./hardware/kit/common/drivers/displaypalemlib.o
 .data          0x00000000        0x0 ./hardware/kit/common/drivers/displaypalemlib.o
 .bss           0x00000000        0x0 ./hardware/kit/common/drivers/displaypalemlib.o
 .text.BUS_RegMaskedSet
                0x00000000       0x24 ./hardware/kit/common/drivers/displaypalemlib.o
 .text.BUS_RegMaskedClear
                0x00000000       0x24 ./hardware/kit/common/drivers/displaypalemlib.o
 .text.GPIO_PinOutClear
                0x00000000       0x58 ./hardware/kit/common/drivers/displaypalemlib.o
 .text.GPIO_PinOutSet
                0x00000000       0x58 ./hardware/kit/common/drivers/displaypalemlib.o
 .text.GPIO_PinOutToggle
                0x00000000       0x58 ./hardware/kit/common/drivers/displaypalemlib.o
 .rodata        0x00000000       0x24 ./hardware/kit/common/drivers/displaypalemlib.o
 .text.PAL_SpiInit
                0x00000000       0x64 ./hardware/kit/common/drivers/displaypalemlib.o
 .text.PAL_SpiShutdown
                0x00000000       0x2c ./hardware/kit/common/drivers/displaypalemlib.o
 .text.PAL_SpiTransmit
                0x00000000       0x74 ./hardware/kit/common/drivers/displaypalemlib.o
 .text.PAL_TimerInit
                0x00000000       0x18 ./hardware/kit/common/drivers/displaypalemlib.o
 .text.PAL_TimerShutdown
                0x00000000       0x18 ./hardware/kit/common/drivers/displaypalemlib.o
 .text.PAL_TimerMicroSecondsDelay
                0x00000000       0x1c ./hardware/kit/common/drivers/displaypalemlib.o
 .text.PAL_TimerRepeat
                0x00000000       0x30 ./hardware/kit/common/drivers/displaypalemlib.o
 .text.PAL_GpioInit
                0x00000000       0x20 ./hardware/kit/common/drivers/displaypalemlib.o
 .text.PAL_GpioShutdown
                0x00000000       0x20 ./hardware/kit/common/drivers/displaypalemlib.o
 .text.PAL_GpioPinModeSet
                0x00000000       0x3c ./hardware/kit/common/drivers/displaypalemlib.o
 .text.PAL_GpioPinOutSet
                0x00000000       0x20 ./hardware/kit/common/drivers/displaypalemlib.o
 .text.PAL_GpioPinOutClear
                0x00000000       0x20 ./hardware/kit/common/drivers/displaypalemlib.o
 .text.PAL_GpioPinOutToggle
                0x00000000       0x20 ./hardware/kit/common/drivers/displaypalemlib.o
 .debug_info    0x00000000      0xddb ./hardware/kit/common/drivers/displaypalemlib.o
 .debug_abbrev  0x00000000      0x204 ./hardware/kit/common/drivers/displaypalemlib.o
 .debug_loc     0x00000000      0x5d0 ./hardware/kit/common/drivers/displaypalemlib.o
 .debug_aranges
                0x00000000       0xa8 ./hardware/kit/common/drivers/displaypalemlib.o
 .debug_ranges  0x00000000       0x98 ./hardware/kit/common/drivers/displaypalemlib.o
 .debug_line    0x00000000      0x558 ./hardware/kit/common/drivers/displaypalemlib.o
 .debug_str     0x00000000      0xcfc ./hardware/kit/common/drivers/displaypalemlib.o
 .comment       0x00000000       0x71 ./hardware/kit/common/drivers/displaypalemlib.o
 .debug_frame   0x00000000      0x2ac ./hardware/kit/common/drivers/displaypalemlib.o
 .ARM.attributes
                0x00000000       0x39 ./hardware/kit/common/drivers/displaypalemlib.o
 .text          0x00000000        0x0 ./hardware/kit/common/drivers/i2cspm.o
 .data          0x00000000        0x0 ./hardware/kit/common/drivers/i2cspm.o
 .bss           0x00000000        0x0 ./hardware/kit/common/drivers/i2cspm.o
 .text.BUS_RegMaskedSet
                0x00000000       0x24 ./hardware/kit/common/drivers/i2cspm.o
 .text.BUS_RegMaskedClear
                0x00000000       0x24 ./hardware/kit/common/drivers/i2cspm.o
 .text.GPIO_PinOutClear
                0x00000000       0x58 ./hardware/kit/common/drivers/i2cspm.o
 .text.GPIO_PinOutSet
                0x00000000       0x58 ./hardware/kit/common/drivers/i2cspm.o
 .text.I2CSPM_Init
                0x00000000       0xf0 ./hardware/kit/common/drivers/i2cspm.o
 .text          0x00000000        0x0 ./hardware/kit/common/drivers/mx25flash_spi.o
 .data          0x00000000        0x0 ./hardware/kit/common/drivers/mx25flash_spi.o
 .bss           0x00000000        0x0 ./hardware/kit/common/drivers/mx25flash_spi.o
 .text.BUS_RegBitRead
                0x00000000       0x2c ./hardware/kit/common/drivers/mx25flash_spi.o
 .text.GPIO_PinInGet
                0x00000000       0x54 ./hardware/kit/common/drivers/mx25flash_spi.o
 .text.GetByte  0x00000000       0x40 ./hardware/kit/common/drivers/mx25flash_spi.o
 .text.WaitFlashReady
                0x00000000       0x34 ./hardware/kit/common/drivers/mx25flash_spi.o
 .text.WaitRYBYReady
                0x00000000       0x38 ./hardware/kit/common/drivers/mx25flash_spi.o
 .text.IsFlashBusy
                0x00000000       0x28 ./hardware/kit/common/drivers/mx25flash_spi.o
 .text.IsFlashQIO
                0x00000000       0x28 ./hardware/kit/common/drivers/mx25flash_spi.o
 .text.IsFlash4Byte
                0x00000000       0x28 ./hardware/kit/common/drivers/mx25flash_spi.o
 .text.SendFlashAddr
                0x00000000       0x5c ./hardware/kit/common/drivers/mx25flash_spi.o
 .text.GetDummyCycle
                0x00000000       0x24 ./hardware/kit/common/drivers/mx25flash_spi.o
 .text.MX25_RDID
                0x00000000       0x5c ./hardware/kit/common/drivers/mx25flash_spi.o
 .text.MX25_RES
                0x00000000       0x38 ./hardware/kit/common/drivers/mx25flash_spi.o
 .text.MX25_REMS
                0x00000000       0x60 ./hardware/kit/common/drivers/mx25flash_spi.o
 .text.MX25_RDSR
                0x00000000       0x34 ./hardware/kit/common/drivers/mx25flash_spi.o
 .text.MX25_WRSR
                0x00000000       0x54 ./hardware/kit/common/drivers/mx25flash_spi.o
 .text.MX25_RDSCUR
                0x00000000       0x34 ./hardware/kit/common/drivers/mx25flash_spi.o
 .text.MX25_WRSCUR
                0x00000000       0x5c ./hardware/kit/common/drivers/mx25flash_spi.o
 .text.MX25_RDCR
                0x00000000       0x34 ./hardware/kit/common/drivers/mx25flash_spi.o
 .text.MX25_READ
                0x00000000       0x80 ./hardware/kit/common/drivers/mx25flash_spi.o
 .text.MX25_2READ
                0x00000000       0x98 ./hardware/kit/common/drivers/mx25flash_spi.o
 .text.MX25_4READ
                0x00000000       0xb0 ./hardware/kit/common/drivers/mx25flash_spi.o
 .text.MX25_DREAD
                0x00000000       0x98 ./hardware/kit/common/drivers/mx25flash_spi.o
 .text.MX25_QREAD
                0x00000000       0xb0 ./hardware/kit/common/drivers/mx25flash_spi.o
 .text.MX25_FASTREAD
                0x00000000       0x98 ./hardware/kit/common/drivers/mx25flash_spi.o
 .text.MX25_RDSFDP
                0x00000000       0x88 ./hardware/kit/common/drivers/mx25flash_spi.o
 .text.MX25_WREN
                0x00000000       0x1c ./hardware/kit/common/drivers/mx25flash_spi.o
 .text.MX25_WRDI
                0x00000000       0x1c ./hardware/kit/common/drivers/mx25flash_spi.o
 .text.MX25_PP  0x00000000       0xa4 ./hardware/kit/common/drivers/mx25flash_spi.o
 .text.MX25_4PP
                0x00000000       0xb8 ./hardware/kit/common/drivers/mx25flash_spi.o
 .text.MX25_SE  0x00000000       0x80 ./hardware/kit/common/drivers/mx25flash_spi.o
 .text.MX25_BE32K
                0x00000000       0x80 ./hardware/kit/common/drivers/mx25flash_spi.o
 .text.MX25_BE  0x00000000       0x80 ./hardware/kit/common/drivers/mx25flash_spi.o
 .text.MX25_CE  0x00000000       0x40 ./hardware/kit/common/drivers/mx25flash_spi.o
 .text.MX25_ENSO
                0x00000000       0x1c ./hardware/kit/common/drivers/mx25flash_spi.o
 .text.MX25_EXSO
                0x00000000       0x1c ./hardware/kit/common/drivers/mx25flash_spi.o
 .text.MX25_SBL
                0x00000000       0x30 ./hardware/kit/common/drivers/mx25flash_spi.o
 .text.MX25_RSTEN
                0x00000000       0x1c ./hardware/kit/common/drivers/mx25flash_spi.o
 .text.MX25_RST
                0x00000000       0x30 ./hardware/kit/common/drivers/mx25flash_spi.o
 .text.MX25_PGM_ERS_S
                0x00000000       0x1c ./hardware/kit/common/drivers/mx25flash_spi.o
 .text.MX25_PGM_ERS_R
                0x00000000       0x1c ./hardware/kit/common/drivers/mx25flash_spi.o
 .text.MX25_NOP
                0x00000000       0x1c ./hardware/kit/common/drivers/mx25flash_spi.o
 .text          0x00000000        0x0 ./hardware/kit/common/drivers/si7013.o
 .data          0x00000000        0x0 ./hardware/kit/common/drivers/si7013.o
 .bss           0x00000000        0x0 ./hardware/kit/common/drivers/si7013.o
 .text.Si7013_Measure
                0x00000000       0x70 ./hardware/kit/common/drivers/si7013.o
 .text.Si7013_StartNoHoldMeasure
                0x00000000       0x54 ./hardware/kit/common/drivers/si7013.o
 .text.Si7013_GetFirmwareRevision
                0x00000000       0x64 ./hardware/kit/common/drivers/si7013.o
 .text.Si7013_StartNoHoldMeasureRHAndTemp
                0x00000000       0x24 ./hardware/kit/common/drivers/si7013.o
 .text.Si7013_ReadNoHoldData
                0x00000000       0x64 ./hardware/kit/common/drivers/si7013.o
 .text.Si7013_ReadNoHoldRHAndTemp
                0x00000000       0x84 ./hardware/kit/common/drivers/si7013.o
 .text.Si7013_MeasureRHAndTemp
                0x00000000       0x84 ./hardware/kit/common/drivers/si7013.o
 .text.Si7013_WriteUserReg2
                0x00000000       0x58 ./hardware/kit/common/drivers/si7013.o
 .text.Si7013_MeasureV
                0x00000000       0x4c ./hardware/kit/common/drivers/si7013.o
 .text          0x00000000        0x0 ./hardware/kit/common/drivers/tempsens.o
 .data          0x00000000        0x0 ./hardware/kit/common/drivers/tempsens.o
 .bss           0x00000000        0x0 ./hardware/kit/common/drivers/tempsens.o
 .text.TEMPSENS_Celsius2Fahrenheit
                0x00000000       0x88 ./hardware/kit/common/drivers/tempsens.o
 .text.TEMPSENS_RegisterGet
                0x00000000       0x88 ./hardware/kit/common/drivers/tempsens.o
 .text.TEMPSENS_RegisterSet
                0x00000000       0x84 ./hardware/kit/common/drivers/tempsens.o
 .text.TEMPSENS_TemperatureGet
                0x00000000       0xc0 ./hardware/kit/common/drivers/tempsens.o
 .debug_info    0x00000000      0x536 ./hardware/kit/common/drivers/tempsens.o
 .debug_abbrev  0x00000000      0x15e ./hardware/kit/common/drivers/tempsens.o
 .debug_loc     0x00000000      0x14c ./hardware/kit/common/drivers/tempsens.o
 .debug_aranges
                0x00000000       0x38 ./hardware/kit/common/drivers/tempsens.o
 .debug_ranges  0x00000000       0x28 ./hardware/kit/common/drivers/tempsens.o
 .debug_line    0x00000000      0x2f7 ./hardware/kit/common/drivers/tempsens.o
 .debug_str     0x00000000      0x499 ./hardware/kit/common/drivers/tempsens.o
 .comment       0x00000000       0x71 ./hardware/kit/common/drivers/tempsens.o
 .debug_frame   0x00000000       0xa4 ./hardware/kit/common/drivers/tempsens.o
 .ARM.attributes
                0x00000000       0x39 ./hardware/kit/common/drivers/tempsens.o
 .text          0x00000000        0x0 ./hardware/kit/common/drivers/udelay.o
 .data          0x00000000        0x0 ./hardware/kit/common/drivers/udelay.o
 .bss           0x00000000        0x0 ./hardware/kit/common/drivers/udelay.o
 .text.NVIC_ClearPendingIRQ
                0x00000000       0x30 ./hardware/kit/common/drivers/udelay.o
 .text.RTCC_CounterGet
                0x00000000       0x18 ./hardware/kit/common/drivers/udelay.o
 .data.loops_per_jiffy
                0x00000000        0x4 ./hardware/kit/common/drivers/udelay.o
 .rodata        0x00000000       0x18 ./hardware/kit/common/drivers/udelay.o
 .text.UDELAY_Calibrate
                0x00000000      0x190 ./hardware/kit/common/drivers/udelay.o
 .text.UDELAY_Delay
                0x00000000       0x38 ./hardware/kit/common/drivers/udelay.o
 .text.calibrate_delay
                0x00000000       0xd8 ./hardware/kit/common/drivers/udelay.o
 .text.clock    0x00000000       0x10 ./hardware/kit/common/drivers/udelay.o
 .text._delay   0x00000000       0x18 ./hardware/kit/common/drivers/udelay.o
 .debug_info    0x00000000      0xec5 ./hardware/kit/common/drivers/udelay.o
 .debug_abbrev  0x00000000      0x1e7 ./hardware/kit/common/drivers/udelay.o
 .debug_loc     0x00000000      0x226 ./hardware/kit/common/drivers/udelay.o
 .debug_aranges
                0x00000000       0x50 ./hardware/kit/common/drivers/udelay.o
 .debug_ranges  0x00000000       0x40 ./hardware/kit/common/drivers/udelay.o
 .debug_line    0x00000000      0x3da ./hardware/kit/common/drivers/udelay.o
 .debug_str     0x00000000      0xee3 ./hardware/kit/common/drivers/udelay.o
 .comment       0x00000000       0x71 ./hardware/kit/common/drivers/udelay.o
 .debug_frame   0x00000000      0x110 ./hardware/kit/common/drivers/udelay.o
 .ARM.attributes
                0x00000000       0x39 ./hardware/kit/common/drivers/udelay.o
 .text          0x00000000        0x0 ./platform/Device/SiliconLabs/EFR32BG13P/Source/GCC/startup_efr32bg13p.o
 .data          0x00000000        0x0 ./platform/Device/SiliconLabs/EFR32BG13P/Source/GCC/startup_efr32bg13p.o
 .bss           0x00000000        0x0 ./platform/Device/SiliconLabs/EFR32BG13P/Source/GCC/startup_efr32bg13p.o
 .text          0x00000000        0x0 ./platform/emdrv/dmadrv/src/dmadrv.o
 .data          0x00000000        0x0 ./platform/emdrv/dmadrv/src/dmadrv.o
 .bss           0x00000000        0x0 ./platform/emdrv/dmadrv/src/dmadrv.o
 .bss.initialized
                0x00000000        0x1 ./platform/emdrv/dmadrv/src/dmadrv.o
 .rodata.xferCfg
                0x00000000       0x10 ./platform/emdrv/dmadrv/src/dmadrv.o
 .rodata.m2p    0x00000000       0x10 ./platform/emdrv/dmadrv/src/dmadrv.o
 .rodata.p2m    0x00000000       0x10 ./platform/emdrv/dmadrv/src/dmadrv.o
 .text.DMADRV_AllocateChannel
                0x00000000       0xb4 ./platform/emdrv/dmadrv/src/dmadrv.o
 .text.DMADRV_DeInit
                0x00000000       0x7c ./platform/emdrv/dmadrv/src/dmadrv.o
 .text.DMADRV_FreeChannel
                0x00000000       0x84 ./platform/emdrv/dmadrv/src/dmadrv.o
 .rodata        0x00000000        0x4 ./platform/emdrv/dmadrv/src/dmadrv.o
 .text.DMADRV_Init
                0x00000000       0x84 ./platform/emdrv/dmadrv/src/dmadrv.o
 .text.DMADRV_MemoryPeripheral
                0x00000000       0x44 ./platform/emdrv/dmadrv/src/dmadrv.o
 .text.DMADRV_MemoryPeripheralPingPong
                0x00000000       0x44 ./platform/emdrv/dmadrv/src/dmadrv.o
 .text.DMADRV_PeripheralMemory
                0x00000000       0x44 ./platform/emdrv/dmadrv/src/dmadrv.o
 .text.DMADRV_PeripheralMemoryPingPong
                0x00000000       0x44 ./platform/emdrv/dmadrv/src/dmadrv.o
 .text.DMADRV_PauseTransfer
                0x00000000       0x6c ./platform/emdrv/dmadrv/src/dmadrv.o
 .text.DMADRV_ResumeTransfer
                0x00000000       0x6c ./platform/emdrv/dmadrv/src/dmadrv.o
 .text.DMADRV_StopTransfer
                0x00000000       0x6c ./platform/emdrv/dmadrv/src/dmadrv.o
 .text.DMADRV_TransferActive
                0x00000000       0x94 ./platform/emdrv/dmadrv/src/dmadrv.o
 .text.DMADRV_TransferCompletePending
                0x00000000       0x94 ./platform/emdrv/dmadrv/src/dmadrv.o
 .text.DMADRV_TransferDone
                0x00000000       0x7c ./platform/emdrv/dmadrv/src/dmadrv.o
 .text.DMADRV_TransferRemainingCount
                0x00000000       0x7c ./platform/emdrv/dmadrv/src/dmadrv.o
 .text.StartTransfer
                0x00000000      0x250 ./platform/emdrv/dmadrv/src/dmadrv.o
 .text          0x00000000        0x0 ./platform/emlib/src/em_cryotimer.o
 .data          0x00000000        0x0 ./platform/emlib/src/em_cryotimer.o
 .bss           0x00000000        0x0 ./platform/emlib/src/em_cryotimer.o
 .text.BUS_RegBitWrite
                0x00000000       0x2c ./platform/emlib/src/em_cryotimer.o
 .text.CRYOTIMER_EM4WakeupEnable
                0x00000000       0x20 ./platform/emlib/src/em_cryotimer.o
 .text.CRYOTIMER_Init
                0x00000000       0x4c ./platform/emlib/src/em_cryotimer.o
 .debug_info    0x00000000      0x3ac ./platform/emlib/src/em_cryotimer.o
 .debug_abbrev  0x00000000      0x128 ./platform/emlib/src/em_cryotimer.o
 .debug_loc     0x00000000       0xfc ./platform/emlib/src/em_cryotimer.o
 .debug_aranges
                0x00000000       0x30 ./platform/emlib/src/em_cryotimer.o
 .debug_ranges  0x00000000       0x20 ./platform/emlib/src/em_cryotimer.o
 .debug_line    0x00000000      0x2bb ./platform/emlib/src/em_cryotimer.o
 .debug_str     0x00000000      0x679 ./platform/emlib/src/em_cryotimer.o
 .comment       0x00000000       0x71 ./platform/emlib/src/em_cryotimer.o
 .debug_frame   0x00000000       0x80 ./platform/emlib/src/em_cryotimer.o
 .ARM.attributes
                0x00000000       0x39 ./platform/emlib/src/em_cryotimer.o
 .text          0x00000000        0x0 ./platform/middleware/glib/dmd/display/dmd_display.o
 .data          0x00000000        0x0 ./platform/middleware/glib/dmd/display/dmd_display.o
 .bss           0x00000000        0x0 ./platform/middleware/glib/dmd/display/dmd_display.o
 .text.DMD_init
                0x00000000       0xc8 ./platform/middleware/glib/dmd/display/dmd_display.o
 .text.DMD_getDisplayGeometry
                0x00000000       0x38 ./platform/middleware/glib/dmd/display/dmd_display.o
 .text.DMD_writeData
                0x00000000      0x2c0 ./platform/middleware/glib/dmd/display/dmd_display.o
 .text.DMD_readData
                0x00000000       0x20 ./platform/middleware/glib/dmd/display/dmd_display.o
 .text.DMD_sleep
                0x00000000       0x18 ./platform/middleware/glib/dmd/display/dmd_display.o
 .text.DMD_wakeUp
                0x00000000       0x18 ./platform/middleware/glib/dmd/display/dmd_display.o
 .text.DMD_flipDisplay
                0x00000000       0x18 ./platform/middleware/glib/dmd/display/dmd_display.o
 .text.DMD_allocateFramebuffer
                0x00000000       0x54 ./platform/middleware/glib/dmd/display/dmd_display.o
 .text.DMD_freeFramebuffer
                0x00000000       0x20 ./platform/middleware/glib/dmd/display/dmd_display.o
 .text.DMD_selectFramebuffer
                0x00000000       0x34 ./platform/middleware/glib/dmd/display/dmd_display.o
 .text.DMD_copyFramebuffer
                0x00000000       0x4c ./platform/middleware/glib/dmd/display/dmd_display.o
 .text          0x00000000        0x0 ./platform/middleware/glib/glib/bmp.o
 .data          0x00000000        0x0 ./platform/middleware/glib/glib/bmp.o
 .bss           0x00000000        0x0 ./platform/middleware/glib/glib/bmp.o
 .bss.localCache
                0x00000000       0x80 ./platform/middleware/glib/glib/bmp.o
 .bss.moduleInit
                0x00000000        0x4 ./platform/middleware/glib/glib/bmp.o
 .bss.fileReset
                0x00000000        0x4 ./platform/middleware/glib/glib/bmp.o
 .bss.paletteRead
                0x00000000        0x4 ./platform/middleware/glib/glib/bmp.o
 .bss.bytesInImage
                0x00000000        0x4 ./platform/middleware/glib/glib/bmp.o
 .bss.dataIdx   0x00000000        0x4 ./platform/middleware/glib/glib/bmp.o
 .text.BMP_init
                0x00000000       0x5c ./platform/middleware/glib/glib/bmp.o
 .text.BMP_reset
                0x00000000      0x1bc ./platform/middleware/glib/glib/bmp.o
 .text.BMP_readRgbData
                0x00000000      0x21c ./platform/middleware/glib/glib/bmp.o
 .text.BMP_readRgbDataRLE8
                0x00000000      0x270 ./platform/middleware/glib/glib/bmp.o
 .text.BMP_readRawData8bit
                0x00000000       0xb8 ./platform/middleware/glib/glib/bmp.o
 .text.BMP_readRawData24bit
                0x00000000      0x118 ./platform/middleware/glib/glib/bmp.o
 .text.BMP_readRawDataRLE8
                0x00000000      0x1c0 ./platform/middleware/glib/glib/bmp.o
 .text.BMP_readPaddingBytes
                0x00000000       0x4c ./platform/middleware/glib/glib/bmp.o
 .text.BMP_readRleData
                0x00000000       0xfc ./platform/middleware/glib/glib/bmp.o
 .text.BMP_readRawData
                0x00000000      0x14c ./platform/middleware/glib/glib/bmp.o
 .text.BMP_getWidth
                0x00000000       0x38 ./platform/middleware/glib/glib/bmp.o
 .text.BMP_getHeight
                0x00000000       0x38 ./platform/middleware/glib/glib/bmp.o
 .text.BMP_getBitsPerPixel
                0x00000000       0x3c ./platform/middleware/glib/glib/bmp.o
 .text.BMP_getCompressionType
                0x00000000       0x38 ./platform/middleware/glib/glib/bmp.o
 .text.BMP_getImageDataSize
                0x00000000       0x38 ./platform/middleware/glib/glib/bmp.o
 .text.BMP_getDataOffset
                0x00000000       0x38 ./platform/middleware/glib/glib/bmp.o
 .text.BMP_getFileSize
                0x00000000       0x38 ./platform/middleware/glib/glib/bmp.o
 .debug_info    0x00000000      0x941 ./platform/middleware/glib/glib/bmp.o
 .debug_abbrev  0x00000000      0x18f ./platform/middleware/glib/glib/bmp.o
 .debug_loc     0x00000000      0x50c ./platform/middleware/glib/glib/bmp.o
 .debug_aranges
                0x00000000       0xa0 ./platform/middleware/glib/glib/bmp.o
 .debug_ranges  0x00000000       0x90 ./platform/middleware/glib/glib/bmp.o
 .debug_line    0x00000000      0x517 ./platform/middleware/glib/glib/bmp.o
 .debug_str     0x00000000      0x5d4 ./platform/middleware/glib/glib/bmp.o
 .comment       0x00000000       0x71 ./platform/middleware/glib/glib/bmp.o
 .debug_frame   0x00000000      0x260 ./platform/middleware/glib/glib/bmp.o
 .ARM.attributes
                0x00000000       0x39 ./platform/middleware/glib/glib/bmp.o
 COMMON         0x00000000       0x50 ./platform/middleware/glib/glib/bmp.o
 .text          0x00000000        0x0 ./platform/middleware/glib/glib/glib.o
 .data          0x00000000        0x0 ./platform/middleware/glib/glib/glib.o
 .bss           0x00000000        0x0 ./platform/middleware/glib/glib/glib.o
 .text.GLIB_contextInit
                0x00000000       0x84 ./platform/middleware/glib/glib/glib.o
 .text.GLIB_displayWakeUp
                0x00000000       0x10 ./platform/middleware/glib/glib/glib.o
 .text.GLIB_displaySleep
                0x00000000       0x10 ./platform/middleware/glib/glib/glib.o
 .text.GLIB_setClippingRegion
                0x00000000       0xa4 ./platform/middleware/glib/glib/glib.o
 .text.GLIB_clearRegion
                0x00000000       0x88 ./platform/middleware/glib/glib/glib.o
 .text.GLIB_resetClippingRegion
                0x00000000       0x44 ./platform/middleware/glib/glib/glib.o
 .text.GLIB_applyClippingRegion
                0x00000000       0x58 ./platform/middleware/glib/glib/glib.o
 .text.GLIB_rgbColor
                0x00000000       0x2c ./platform/middleware/glib/glib/glib.o
 .text.GLIB_drawPixelRGB
                0x00000000       0x60 ./platform/middleware/glib/glib/glib.o
 .text          0x00000000        0x0 ./platform/middleware/glib/glib/glib_bitmap.o
 .data          0x00000000        0x0 ./platform/middleware/glib/glib/glib_bitmap.o
 .bss           0x00000000        0x0 ./platform/middleware/glib/glib/glib_bitmap.o
 .text.GLIB_drawBitmap
                0x00000000       0x5c ./platform/middleware/glib/glib/glib_bitmap.o
 .debug_info    0x00000000      0x360 ./platform/middleware/glib/glib/glib_bitmap.o
 .debug_abbrev  0x00000000       0xfa ./platform/middleware/glib/glib/glib_bitmap.o
 .debug_loc     0x00000000       0x50 ./platform/middleware/glib/glib/glib_bitmap.o
 .debug_aranges
                0x00000000       0x20 ./platform/middleware/glib/glib/glib_bitmap.o
 .debug_ranges  0x00000000       0x10 ./platform/middleware/glib/glib/glib_bitmap.o
 .debug_line    0x00000000      0x23b ./platform/middleware/glib/glib/glib_bitmap.o
 .debug_str     0x00000000      0x45c ./platform/middleware/glib/glib/glib_bitmap.o
 .comment       0x00000000       0x71 ./platform/middleware/glib/glib/glib_bitmap.o
 .debug_frame   0x00000000       0x34 ./platform/middleware/glib/glib/glib_bitmap.o
 .ARM.attributes
                0x00000000       0x39 ./platform/middleware/glib/glib/glib_bitmap.o
 .text          0x00000000        0x0 ./platform/middleware/glib/glib/glib_circle.o
 .data          0x00000000        0x0 ./platform/middleware/glib/glib/glib_circle.o
 .bss           0x00000000        0x0 ./platform/middleware/glib/glib/glib_circle.o
 .text.GLIB_drawCircle
                0x00000000       0x28 ./platform/middleware/glib/glib/glib_circle.o
 .text.GLIB_drawPartialCircle
                0x00000000       0xd8 ./platform/middleware/glib/glib/glib_circle.o
 .text.GLIB_drawCircleFilled
                0x00000000      0x170 ./platform/middleware/glib/glib/glib_circle.o
 .text.GLIB_drawPartialCirclePoints
                0x00000000       0xe4 ./platform/middleware/glib/glib/glib_circle.o
 .debug_info    0x00000000      0x52f ./platform/middleware/glib/glib/glib_circle.o
 .debug_abbrev  0x00000000      0x142 ./platform/middleware/glib/glib/glib_circle.o
 .debug_loc     0x00000000      0x142 ./platform/middleware/glib/glib/glib_circle.o
 .debug_aranges
                0x00000000       0x38 ./platform/middleware/glib/glib/glib_circle.o
 .debug_ranges  0x00000000       0x28 ./platform/middleware/glib/glib/glib_circle.o
 .debug_line    0x00000000      0x2c8 ./platform/middleware/glib/glib/glib_circle.o
 .debug_str     0x00000000      0x4d0 ./platform/middleware/glib/glib/glib_circle.o
 .comment       0x00000000       0x71 ./platform/middleware/glib/glib/glib_circle.o
 .debug_frame   0x00000000       0xa8 ./platform/middleware/glib/glib/glib_circle.o
 .ARM.attributes
                0x00000000       0x39 ./platform/middleware/glib/glib/glib_circle.o
 .text          0x00000000        0x0 ./platform/middleware/glib/glib/glib_font_narrow_6x8.o
 .data          0x00000000        0x0 ./platform/middleware/glib/glib/glib_font_narrow_6x8.o
 .bss           0x00000000        0x0 ./platform/middleware/glib/glib/glib_font_narrow_6x8.o
 .rodata.GLIB_FontNarrow6x8PixMap
                0x00000000      0x320 ./platform/middleware/glib/glib/glib_font_narrow_6x8.o
 .rodata.GLIB_FontNarrow6x8
                0x00000000       0x10 ./platform/middleware/glib/glib/glib_font_narrow_6x8.o
 .debug_info    0x00000000      0x19e ./platform/middleware/glib/glib/glib_font_narrow_6x8.o
 .debug_abbrev  0x00000000       0xa9 ./platform/middleware/glib/glib/glib_font_narrow_6x8.o
 .debug_aranges
                0x00000000       0x18 ./platform/middleware/glib/glib/glib_font_narrow_6x8.o
 .debug_line    0x00000000      0x151 ./platform/middleware/glib/glib/glib_font_narrow_6x8.o
 .debug_str     0x00000000      0x32f ./platform/middleware/glib/glib/glib_font_narrow_6x8.o
 .comment       0x00000000       0x71 ./platform/middleware/glib/glib/glib_font_narrow_6x8.o
 .ARM.attributes
                0x00000000       0x39 ./platform/middleware/glib/glib/glib_font_narrow_6x8.o
 .text          0x00000000        0x0 ./platform/middleware/glib/glib/glib_font_normal_8x8.o
 .data          0x00000000        0x0 ./platform/middleware/glib/glib/glib_font_normal_8x8.o
 .bss           0x00000000        0x0 ./platform/middleware/glib/glib/glib_font_normal_8x8.o
 .rodata.GLIB_FontNormal8x8PixMap
                0x00000000      0x320 ./platform/middleware/glib/glib/glib_font_normal_8x8.o
 .rodata.GLIB_FontNormal8x8
                0x00000000       0x10 ./platform/middleware/glib/glib/glib_font_normal_8x8.o
 .debug_info    0x00000000      0x19e ./platform/middleware/glib/glib/glib_font_normal_8x8.o
 .debug_abbrev  0x00000000       0xa9 ./platform/middleware/glib/glib/glib_font_normal_8x8.o
 .debug_aranges
                0x00000000       0x18 ./platform/middleware/glib/glib/glib_font_normal_8x8.o
 .debug_line    0x00000000      0x151 ./platform/middleware/glib/glib/glib_font_normal_8x8.o
 .debug_str     0x00000000      0x32f ./platform/middleware/glib/glib/glib_font_normal_8x8.o
 .comment       0x00000000       0x71 ./platform/middleware/glib/glib/glib_font_normal_8x8.o
 .ARM.attributes
                0x00000000       0x39 ./platform/middleware/glib/glib/glib_font_normal_8x8.o
 .text          0x00000000        0x0 ./platform/middleware/glib/glib/glib_font_number_16x20.o
 .data          0x00000000        0x0 ./platform/middleware/glib/glib/glib_font_number_16x20.o
 .bss           0x00000000        0x0 ./platform/middleware/glib/glib/glib_font_number_16x20.o
 .rodata.GLIB_FontNumber16x20PixMap
                0x00000000      0x1e0 ./platform/middleware/glib/glib/glib_font_number_16x20.o
 .rodata.GLIB_FontNumber16x20
                0x00000000       0x10 ./platform/middleware/glib/glib/glib_font_number_16x20.o
 .debug_info    0x00000000      0x19d ./platform/middleware/glib/glib/glib_font_number_16x20.o
 .debug_abbrev  0x00000000       0xa9 ./platform/middleware/glib/glib/glib_font_number_16x20.o
 .debug_aranges
                0x00000000       0x18 ./platform/middleware/glib/glib/glib_font_number_16x20.o
 .debug_line    0x00000000      0x153 ./platform/middleware/glib/glib/glib_font_number_16x20.o
 .debug_str     0x00000000      0x335 ./platform/middleware/glib/glib/glib_font_number_16x20.o
 .comment       0x00000000       0x71 ./platform/middleware/glib/glib/glib_font_number_16x20.o
 .ARM.attributes
                0x00000000       0x39 ./platform/middleware/glib/glib/glib_font_number_16x20.o
 .text          0x00000000        0x0 ./platform/middleware/glib/glib/glib_line.o
 .data          0x00000000        0x0 ./platform/middleware/glib/glib/glib_line.o
 .bss           0x00000000        0x0 ./platform/middleware/glib/glib/glib_line.o
 .text.GLIB_drawLineH
                0x00000000       0xf0 ./platform/middleware/glib/glib/glib_line.o
 .text.GLIB_drawLineV
                0x00000000       0xf0 ./platform/middleware/glib/glib/glib_line.o
 .text.GLIB_getClipCode
                0x00000000       0x68 ./platform/middleware/glib/glib/glib_line.o
 .text.GLIB_clipLine
                0x00000000      0x1b8 ./platform/middleware/glib/glib/glib_line.o
 .text.GLIB_drawLine
                0x00000000      0x194 ./platform/middleware/glib/glib/glib_line.o
 .debug_info    0x00000000      0x608 ./platform/middleware/glib/glib/glib_line.o
 .debug_abbrev  0x00000000      0x184 ./platform/middleware/glib/glib/glib_line.o
 .debug_loc     0x00000000      0x19d ./platform/middleware/glib/glib/glib_line.o
 .debug_aranges
                0x00000000       0x40 ./platform/middleware/glib/glib/glib_line.o
 .debug_ranges  0x00000000       0x30 ./platform/middleware/glib/glib/glib_line.o
 .debug_line    0x00000000      0x371 ./platform/middleware/glib/glib/glib_line.o
 .debug_str     0x00000000      0x4ee ./platform/middleware/glib/glib/glib_line.o
 .comment       0x00000000       0x71 ./platform/middleware/glib/glib/glib_line.o
 .debug_frame   0x00000000       0xd8 ./platform/middleware/glib/glib/glib_line.o
 .ARM.attributes
                0x00000000       0x39 ./platform/middleware/glib/glib/glib_line.o
 .text          0x00000000        0x0 ./platform/middleware/glib/glib/glib_polygon.o
 .data          0x00000000        0x0 ./platform/middleware/glib/glib/glib_polygon.o
 .bss           0x00000000        0x0 ./platform/middleware/glib/glib/glib_polygon.o
 .text.GLIB_drawPolygon
                0x00000000       0xf0 ./platform/middleware/glib/glib/glib_polygon.o
 .debug_info    0x00000000      0x3aa ./platform/middleware/glib/glib/glib_polygon.o
 .debug_abbrev  0x00000000       0xeb ./platform/middleware/glib/glib/glib_polygon.o
 .debug_loc     0x00000000       0x52 ./platform/middleware/glib/glib/glib_polygon.o
 .debug_aranges
                0x00000000       0x20 ./platform/middleware/glib/glib/glib_polygon.o
 .debug_ranges  0x00000000       0x10 ./platform/middleware/glib/glib/glib_polygon.o
 .debug_line    0x00000000      0x279 ./platform/middleware/glib/glib/glib_polygon.o
 .debug_str     0x00000000      0x498 ./platform/middleware/glib/glib/glib_polygon.o
 .comment       0x00000000       0x71 ./platform/middleware/glib/glib/glib_polygon.o
 .debug_frame   0x00000000       0x38 ./platform/middleware/glib/glib/glib_polygon.o
 .ARM.attributes
                0x00000000       0x39 ./platform/middleware/glib/glib/glib_polygon.o
 .text          0x00000000        0x0 ./platform/middleware/glib/glib/glib_rectangle.o
 .data          0x00000000        0x0 ./platform/middleware/glib/glib/glib_rectangle.o
 .bss           0x00000000        0x0 ./platform/middleware/glib/glib/glib_rectangle.o
 .text.GLIB_normalizeRect
                0x00000000       0x54 ./platform/middleware/glib/glib/glib_rectangle.o
 .text.GLIB_drawRect
                0x00000000       0xec ./platform/middleware/glib/glib/glib_rectangle.o
 .text.GLIB_drawRectFilled
                0x00000000       0xe4 ./platform/middleware/glib/glib/glib_rectangle.o
 .text          0x00000000        0x0 ./platform/middleware/glib/glib/glib_string.o
 .data          0x00000000        0x0 ./platform/middleware/glib/glib/glib_string.o
 .bss           0x00000000        0x0 ./platform/middleware/glib/glib/glib_string.o
 .text.GLIB_setFont
                0x00000000       0x44 ./platform/middleware/glib/glib/glib_string.o
 .text          0x00000000        0x0 ./src/InitDevice.o
 .data          0x00000000        0x0 ./src/InitDevice.o
 .bss           0x00000000        0x0 ./src/InitDevice.o
 .text.ADC0_enter_DefaultMode_from_RESET
                0x00000000        0xc ./src/InitDevice.o
 .text.ACMP0_enter_DefaultMode_from_RESET
                0x00000000        0xc ./src/InitDevice.o
 .text.ACMP1_enter_DefaultMode_from_RESET
                0x00000000        0xc ./src/InitDevice.o
 .text.IDAC0_enter_DefaultMode_from_RESET
                0x00000000        0xc ./src/InitDevice.o
 .text.VDAC0_enter_DefaultMode_from_RESET
                0x00000000        0xc ./src/InitDevice.o
 .text.OPA0_enter_DefaultMode_from_RESET
                0x00000000        0xc ./src/InitDevice.o
 .text.OPA1_enter_DefaultMode_from_RESET
                0x00000000        0xc ./src/InitDevice.o
 .text.OPA2_enter_DefaultMode_from_RESET
                0x00000000        0xc ./src/InitDevice.o
 .text.LESENSE_enter_DefaultMode_from_RESET
                0x00000000        0xc ./src/InitDevice.o
 .text.USART0_enter_DefaultMode_from_RESET
                0x00000000        0xc ./src/InitDevice.o
 .text.USART1_enter_DefaultMode_from_RESET
                0x00000000        0xc ./src/InitDevice.o
 .text.USART2_enter_DefaultMode_from_RESET
                0x00000000        0xc ./src/InitDevice.o
 .text.LEUART0_enter_DefaultMode_from_RESET
                0x00000000        0xc ./src/InitDevice.o
 .text.WDOG0_enter_DefaultMode_from_RESET
                0x00000000        0xc ./src/InitDevice.o
 .text.WDOG1_enter_DefaultMode_from_RESET
                0x00000000        0xc ./src/InitDevice.o
 .text.I2C0_enter_DefaultMode_from_RESET
                0x00000000        0xc ./src/InitDevice.o
 .text.I2C1_enter_DefaultMode_from_RESET
                0x00000000        0xc ./src/InitDevice.o
 .text.TIMER0_enter_DefaultMode_from_RESET
                0x00000000        0xc ./src/InitDevice.o
 .text.TIMER1_enter_DefaultMode_from_RESET
                0x00000000        0xc ./src/InitDevice.o
 .text.WTIMER0_enter_DefaultMode_from_RESET
                0x00000000        0xc ./src/InitDevice.o
 .text.LETIMER0_enter_DefaultMode_from_RESET
                0x00000000        0xc ./src/InitDevice.o
 .text.CRYOTIMER_enter_DefaultMode_from_RESET
                0x00000000        0xc ./src/InitDevice.o
 .text.PCNT0_enter_DefaultMode_from_RESET
                0x00000000        0xc ./src/InitDevice.o
 .text.CRYPTO1_enter_DefaultMode_from_RESET
                0x00000000        0xc ./src/InitDevice.o
 .text.TRNG0_enter_DefaultMode_from_RESET
                0x00000000        0xc ./src/InitDevice.o
 .text.SMU_enter_DefaultMode_from_RESET
                0x00000000        0xc ./src/InitDevice.o
 .text.CSEN0_enter_DefaultMode_from_RESET
                0x00000000        0xc ./src/InitDevice.o
 .text          0x00000000        0x0 ./src/bma280.o
 .data          0x00000000        0x0 ./src/bma280.o
 .bss           0x00000000        0x0 ./src/bma280.o
 .text.BMA280_Normal_to_Suspend
                0x00000000        0xc ./src/bma280.o
 .text.BMA280_Suspend_to_Normal
                0x00000000        0xc ./src/bma280.o
 .text          0x00000000        0x0 ./src/cmu.o
 .data          0x00000000        0x0 ./src/cmu.o
 .bss           0x00000000        0x0 ./src/cmu.o
 COMMON         0x00000000        0x4 ./src/cmu.o
 .text          0x00000000        0x0 ./src/gpio.o
 .data          0x00000000        0x0 ./src/gpio.o
 .bss           0x00000000        0x0 ./src/gpio.o
 .text          0x00000000        0x0 ./src/letimer0.o
 .data          0x00000000        0x0 ./src/letimer0.o
 .bss           0x00000000        0x0 ./src/letimer0.o
 .bss.mode1     0x00000000        0x4 ./src/letimer0.o
 .text          0x00000000        0x0 ./src/spi.o
 .data          0x00000000        0x0 ./src/spi.o
 .bss           0x00000000        0x0 ./src/spi.o
 .data          0x00000000        0x0 C:\Users\Satyanarayana\SimplicityStudio\v4_workspace\soc-smartPhone_NoBuff\protocol\bluetooth_2.6\lib\EFR32BG13P\GCC\bgapi.a(gecko_bgapi_hardware.c.obj)
 .bss           0x00000000        0x0 C:\Users\Satyanarayana\SimplicityStudio\v4_workspace\soc-smartPhone_NoBuff\protocol\bluetooth_2.6\lib\EFR32BG13P\GCC\bgapi.a(gecko_bgapi_hardware.c.obj)
 .data          0x00000000        0x0 C:\Users\Satyanarayana\SimplicityStudio\v4_workspace\soc-smartPhone_NoBuff\protocol\bluetooth_2.6\lib\EFR32BG13P\GCC\bgapi.a(gecko_bgapi_test.c.obj)
 .bss           0x00000000        0x0 C:\Users\Satyanarayana\SimplicityStudio\v4_workspace\soc-smartPhone_NoBuff\protocol\bluetooth_2.6\lib\EFR32BG13P\GCC\bgapi.a(gecko_bgapi_test.c.obj)
 .data          0x00000000        0x0 C:\Users\Satyanarayana\SimplicityStudio\v4_workspace\soc-smartPhone_NoBuff\protocol\bluetooth_2.6\lib\EFR32BG13P\GCC\bgapi.a(gecko_bgapi_dfu.c.obj)
 .bss           0x00000000        0x0 C:\Users\Satyanarayana\SimplicityStudio\v4_workspace\soc-smartPhone_NoBuff\protocol\bluetooth_2.6\lib\EFR32BG13P\GCC\bgapi.a(gecko_bgapi_dfu.c.obj)
 .data          0x00000000        0x0 C:\Users\Satyanarayana\SimplicityStudio\v4_workspace\soc-smartPhone_NoBuff\protocol\bluetooth_2.6\lib\EFR32BG13P\GCC\bgapi.a(gecko_bgapi_gap.c.obj)
 .bss           0x00000000        0x0 C:\Users\Satyanarayana\SimplicityStudio\v4_workspace\soc-smartPhone_NoBuff\protocol\bluetooth_2.6\lib\EFR32BG13P\GCC\bgapi.a(gecko_bgapi_gap.c.obj)
 .data          0x00000000        0x0 C:\Users\Satyanarayana\SimplicityStudio\v4_workspace\soc-smartPhone_NoBuff\protocol\bluetooth_2.6\lib\EFR32BG13P\GCC\bgapi.a(gecko_bgapi_gatt.c.obj)
 .bss           0x00000000        0x0 C:\Users\Satyanarayana\SimplicityStudio\v4_workspace\soc-smartPhone_NoBuff\protocol\bluetooth_2.6\lib\EFR32BG13P\GCC\bgapi.a(gecko_bgapi_gatt.c.obj)
 .data          0x00000000        0x0 C:\Users\Satyanarayana\SimplicityStudio\v4_workspace\soc-smartPhone_NoBuff\protocol\bluetooth_2.6\lib\EFR32BG13P\GCC\bgapi.a(gecko_bgapi_gatt_server.c.obj)
 .bss           0x00000000        0x0 C:\Users\Satyanarayana\SimplicityStudio\v4_workspace\soc-smartPhone_NoBuff\protocol\bluetooth_2.6\lib\EFR32BG13P\GCC\bgapi.a(gecko_bgapi_gatt_server.c.obj)
 .data          0x00000000        0x0 C:\Users\Satyanarayana\SimplicityStudio\v4_workspace\soc-smartPhone_NoBuff\protocol\bluetooth_2.6\lib\EFR32BG13P\GCC\bgapi.a(gecko_bgapi_flash.c.obj)
 .bss           0x00000000        0x0 C:\Users\Satyanarayana\SimplicityStudio\v4_workspace\soc-smartPhone_NoBuff\protocol\bluetooth_2.6\lib\EFR32BG13P\GCC\bgapi.a(gecko_bgapi_flash.c.obj)
 .data          0x00000000        0x0 C:\Users\Satyanarayana\SimplicityStudio\v4_workspace\soc-smartPhone_NoBuff\protocol\bluetooth_2.6\lib\EFR32BG13P\GCC\bgapi.a(gecko_bgapi_sm.c.obj)
 .bss           0x00000000        0x0 C:\Users\Satyanarayana\SimplicityStudio\v4_workspace\soc-smartPhone_NoBuff\protocol\bluetooth_2.6\lib\EFR32BG13P\GCC\bgapi.a(gecko_bgapi_sm.c.obj)
 .data          0x00000000        0x0 C:\Users\Satyanarayana\SimplicityStudio\v4_workspace\soc-smartPhone_NoBuff\protocol\bluetooth_2.6\lib\EFR32BG13P\GCC\bgapi.a(gecko_bgapi_system.c.obj)
 .bss           0x00000000        0x0 C:\Users\Satyanarayana\SimplicityStudio\v4_workspace\soc-smartPhone_NoBuff\protocol\bluetooth_2.6\lib\EFR32BG13P\GCC\bgapi.a(gecko_bgapi_system.c.obj)
 .data          0x00000000        0x0 C:\Users\Satyanarayana\SimplicityStudio\v4_workspace\soc-smartPhone_NoBuff\protocol\bluetooth_2.6\lib\EFR32BG13P\GCC\bgapi.a(gecko_bgapi_endpoint.c.obj)
 .bss           0x00000000        0x0 C:\Users\Satyanarayana\SimplicityStudio\v4_workspace\soc-smartPhone_NoBuff\protocol\bluetooth_2.6\lib\EFR32BG13P\GCC\bgapi.a(gecko_bgapi_endpoint.c.obj)
 .data          0x00000000        0x0 C:\Users\Satyanarayana\SimplicityStudio\v4_workspace\soc-smartPhone_NoBuff\protocol\bluetooth_2.6\lib\EFR32BG13P\GCC\bgapi.a(gecko_bgapi_le_connection.c.obj)
 .bss           0x00000000        0x0 C:\Users\Satyanarayana\SimplicityStudio\v4_workspace\soc-smartPhone_NoBuff\protocol\bluetooth_2.6\lib\EFR32BG13P\GCC\bgapi.a(gecko_bgapi_le_connection.c.obj)
 .data          0x00000000        0x0 C:\Users\Satyanarayana\SimplicityStudio\v4_workspace\soc-smartPhone_NoBuff\protocol\bluetooth_2.6\lib\EFR32BG13P\GCC\bgapi.a(bgapi_hardware.c.obj)
 .data          0x00000000        0x0 C:\Users\Satyanarayana\SimplicityStudio\v4_workspace\soc-smartPhone_NoBuff\protocol\bluetooth_2.6\lib\EFR32BG13P\GCC\bgapi.a(bgapi_test_lib.c.obj)
 .data          0x00000000        0x0 C:\Users\Satyanarayana\SimplicityStudio\v4_workspace\soc-smartPhone_NoBuff\protocol\bluetooth_2.6\lib\EFR32BG13P\GCC\bgapi.a(bgapi_dfu.c.obj)
 .bss           0x00000000        0x0 C:\Users\Satyanarayana\SimplicityStudio\v4_workspace\soc-smartPhone_NoBuff\protocol\bluetooth_2.6\lib\EFR32BG13P\GCC\bgapi.a(bgapi_dfu.c.obj)
 .data          0x00000000        0x0 C:\Users\Satyanarayana\SimplicityStudio\v4_workspace\soc-smartPhone_NoBuff\protocol\bluetooth_2.6\lib\EFR32BG13P\GCC\bgapi.a(bgapi_gap.c.obj)
 .data          0x00000000        0x0 C:\Users\Satyanarayana\SimplicityStudio\v4_workspace\soc-smartPhone_NoBuff\protocol\bluetooth_2.6\lib\EFR32BG13P\GCC\bgapi.a(bgapi_gatt_lib.c.obj)
 .bss           0x00000000        0x0 C:\Users\Satyanarayana\SimplicityStudio\v4_workspace\soc-smartPhone_NoBuff\protocol\bluetooth_2.6\lib\EFR32BG13P\GCC\bgapi.a(bgapi_gatt_lib.c.obj)
 .data          0x00000000        0x0 C:\Users\Satyanarayana\SimplicityStudio\v4_workspace\soc-smartPhone_NoBuff\protocol\bluetooth_2.6\lib\EFR32BG13P\GCC\bgapi.a(bgapi_ps.c.obj)
 .data          0x00000000        0x0 C:\Users\Satyanarayana\SimplicityStudio\v4_workspace\soc-smartPhone_NoBuff\protocol\bluetooth_2.6\lib\EFR32BG13P\GCC\bgapi.a(bgapi_sm.c.obj)
 .data          0x00000000        0x0 C:\Users\Satyanarayana\SimplicityStudio\v4_workspace\soc-smartPhone_NoBuff\protocol\bluetooth_2.6\lib\EFR32BG13P\GCC\bgapi.a(bgapi_system.c.obj)
 .data          0x00000000        0x0 C:\Users\Satyanarayana\SimplicityStudio\v4_workspace\soc-smartPhone_NoBuff\protocol\bluetooth_2.6\lib\EFR32BG13P\GCC\bgapi.a(bgapi_endpoint.c.obj)
 .bss           0x00000000        0x0 C:\Users\Satyanarayana\SimplicityStudio\v4_workspace\soc-smartPhone_NoBuff\protocol\bluetooth_2.6\lib\EFR32BG13P\GCC\bgapi.a(bgapi_endpoint.c.obj)
 .data          0x00000000        0x0 C:\Users\Satyanarayana\SimplicityStudio\v4_workspace\soc-smartPhone_NoBuff\protocol\bluetooth_2.6\lib\EFR32BG13P\GCC\bgapi.a(bgapi_le_connection.c.obj)
 .bss           0x00000000        0x0 C:\Users\Satyanarayana\SimplicityStudio\v4_workspace\soc-smartPhone_NoBuff\protocol\bluetooth_2.6\lib\EFR32BG13P\GCC\bgapi.a(bgapi_le_connection.c.obj)
 .data          0x00000000        0x0 C:\Users\Satyanarayana\SimplicityStudio\v4_workspace\soc-smartPhone_NoBuff\protocol\bluetooth_2.6\lib\EFR32BG13P\GCC\bgapi.a(gatt_client.c.obj)
 .bss           0x00000000        0x0 C:\Users\Satyanarayana\SimplicityStudio\v4_workspace\soc-smartPhone_NoBuff\protocol\bluetooth_2.6\lib\EFR32BG13P\GCC\bgapi.a(gatt_client.c.obj)
 .data          0x00000000        0x0 C:\Users\Satyanarayana\SimplicityStudio\v4_workspace\soc-smartPhone_NoBuff\protocol\bluetooth_2.6\lib\EFR32BG13P\GCC\bgapi.a(ubt_gatt_client.c.obj)
 .bss           0x00000000        0x0 C:\Users\Satyanarayana\SimplicityStudio\v4_workspace\soc-smartPhone_NoBuff\protocol\bluetooth_2.6\lib\EFR32BG13P\GCC\bgapi.a(ubt_gatt_client.c.obj)
 .data          0x00000000        0x0 C:\Users\Satyanarayana\SimplicityStudio\v4_workspace\soc-smartPhone_NoBuff\protocol\bluetooth_2.6\lib\EFR32BG13P\GCC\bgapi.a(att_client.c.obj)
 .bss           0x00000000        0x0 C:\Users\Satyanarayana\SimplicityStudio\v4_workspace\soc-smartPhone_NoBuff\protocol\bluetooth_2.6\lib\EFR32BG13P\GCC\bgapi.a(att_client.c.obj)
 .text          0x00000000        0x0 C:\Users\Satyanarayana\SimplicityStudio\v4_workspace\soc-smartPhone_NoBuff\protocol\bluetooth_2.6\lib\EFR32BG13P\EABI\binstack.o
 .data          0x00000000        0x0 C:\Users\Satyanarayana\SimplicityStudio\v4_workspace\soc-smartPhone_NoBuff\protocol\bluetooth_2.6\lib\EFR32BG13P\EABI\binstack.o
 .bss           0x00000000        0x0 C:\Users\Satyanarayana\SimplicityStudio\v4_workspace\soc-smartPhone_NoBuff\protocol\bluetooth_2.6\lib\EFR32BG13P\EABI\binstack.o
 .comment       0x00000000       0x6d C:\Users\Satyanarayana\SimplicityStudio\v4_workspace\soc-smartPhone_NoBuff\protocol\bluetooth_2.6\lib\EFR32BG13P\EABI\stack.a
 .data          0x00000000        0x0 c:/siliconlabs/simplicitystudio/v4/developer/toolchains/gnu_arm/4.9_2015q3/bin/../lib/gcc/arm-none-eabi/4.9.3/armv7e-m/fpu\libgcc.a(_arm_muldivdf3.o)
 .bss           0x00000000        0x0 c:/siliconlabs/simplicitystudio/v4/developer/toolchains/gnu_arm/4.9_2015q3/bin/../lib/gcc/arm-none-eabi/4.9.3/armv7e-m/fpu\libgcc.a(_arm_muldivdf3.o)
 .data          0x00000000        0x0 c:/siliconlabs/simplicitystudio/v4/developer/toolchains/gnu_arm/4.9_2015q3/bin/../lib/gcc/arm-none-eabi/4.9.3/armv7e-m/fpu\libgcc.a(_arm_fixdfsi.o)
 .bss           0x00000000        0x0 c:/siliconlabs/simplicitystudio/v4/developer/toolchains/gnu_arm/4.9_2015q3/bin/../lib/gcc/arm-none-eabi/4.9.3/armv7e-m/fpu\libgcc.a(_arm_fixdfsi.o)
 .data          0x00000000        0x0 c:/siliconlabs/simplicitystudio/v4/developer/toolchains/gnu_arm/4.9_2015q3/bin/../lib/gcc/arm-none-eabi/4.9.3/armv7e-m/fpu\libgcc.a(_aeabi_uldivmod.o)
 .bss           0x00000000        0x0 c:/siliconlabs/simplicitystudio/v4/developer/toolchains/gnu_arm/4.9_2015q3/bin/../lib/gcc/arm-none-eabi/4.9.3/armv7e-m/fpu\libgcc.a(_aeabi_uldivmod.o)
 .data          0x00000000        0x0 c:/siliconlabs/simplicitystudio/v4/developer/toolchains/gnu_arm/4.9_2015q3/bin/../lib/gcc/arm-none-eabi/4.9.3/armv7e-m/fpu\libgcc.a(bpabi.o)
 .bss           0x00000000        0x0 c:/siliconlabs/simplicitystudio/v4/developer/toolchains/gnu_arm/4.9_2015q3/bin/../lib/gcc/arm-none-eabi/4.9.3/armv7e-m/fpu\libgcc.a(bpabi.o)
 .data          0x00000000        0x0 c:/siliconlabs/simplicitystudio/v4/developer/toolchains/gnu_arm/4.9_2015q3/bin/../lib/gcc/arm-none-eabi/4.9.3/armv7e-m/fpu\libgcc.a(_dvmd_tls.o)
 .bss           0x00000000        0x0 c:/siliconlabs/simplicitystudio/v4/developer/toolchains/gnu_arm/4.9_2015q3/bin/../lib/gcc/arm-none-eabi/4.9.3/armv7e-m/fpu\libgcc.a(_dvmd_tls.o)
 .data          0x00000000        0x0 c:/siliconlabs/simplicitystudio/v4/developer/toolchains/gnu_arm/4.9_2015q3/bin/../lib/gcc/arm-none-eabi/4.9.3/armv7e-m/fpu\libgcc.a(_divdi3.o)
 .bss           0x00000000        0x0 c:/siliconlabs/simplicitystudio/v4/developer/toolchains/gnu_arm/4.9_2015q3/bin/../lib/gcc/arm-none-eabi/4.9.3/armv7e-m/fpu\libgcc.a(_divdi3.o)
 .ARM.extab     0x00000000        0x0 c:/siliconlabs/simplicitystudio/v4/developer/toolchains/gnu_arm/4.9_2015q3/bin/../lib/gcc/arm-none-eabi/4.9.3/armv7e-m/fpu\libgcc.a(_divdi3.o)
 .data          0x00000000        0x0 c:/siliconlabs/simplicitystudio/v4/developer/toolchains/gnu_arm/4.9_2015q3/bin/../lib/gcc/arm-none-eabi/4.9.3/armv7e-m/fpu\libgcc.a(_udivdi3.o)
 .bss           0x00000000        0x0 c:/siliconlabs/simplicitystudio/v4/developer/toolchains/gnu_arm/4.9_2015q3/bin/../lib/gcc/arm-none-eabi/4.9.3/armv7e-m/fpu\libgcc.a(_udivdi3.o)
 .ARM.extab     0x00000000        0x0 c:/siliconlabs/simplicitystudio/v4/developer/toolchains/gnu_arm/4.9_2015q3/bin/../lib/gcc/arm-none-eabi/4.9.3/armv7e-m/fpu\libgcc.a(_udivdi3.o)
 .text          0x00000000        0x0 c:/siliconlabs/simplicitystudio/v4/developer/toolchains/gnu_arm/4.9_2015q3/bin/../lib/gcc/arm-none-eabi/4.9.3/../../../../arm-none-eabi/lib/armv7e-m/fpu\libc.a(lib_a-exit.o)
 .data          0x00000000        0x0 c:/siliconlabs/simplicitystudio/v4/developer/toolchains/gnu_arm/4.9_2015q3/bin/../lib/gcc/arm-none-eabi/4.9.3/../../../../arm-none-eabi/lib/armv7e-m/fpu\libc.a(lib_a-exit.o)
 .bss           0x00000000        0x0 c:/siliconlabs/simplicitystudio/v4/developer/toolchains/gnu_arm/4.9_2015q3/bin/../lib/gcc/arm-none-eabi/4.9.3/../../../../arm-none-eabi/lib/armv7e-m/fpu\libc.a(lib_a-exit.o)
 .text          0x00000000        0x0 c:/siliconlabs/simplicitystudio/v4/developer/toolchains/gnu_arm/4.9_2015q3/bin/../lib/gcc/arm-none-eabi/4.9.3/../../../../arm-none-eabi/lib/armv7e-m/fpu\libc.a(lib_a-impure.o)
 .data          0x00000000        0x0 c:/siliconlabs/simplicitystudio/v4/developer/toolchains/gnu_arm/4.9_2015q3/bin/../lib/gcc/arm-none-eabi/4.9.3/../../../../arm-none-eabi/lib/armv7e-m/fpu\libc.a(lib_a-impure.o)
 .bss           0x00000000        0x0 c:/siliconlabs/simplicitystudio/v4/developer/toolchains/gnu_arm/4.9_2015q3/bin/../lib/gcc/arm-none-eabi/4.9.3/../../../../arm-none-eabi/lib/armv7e-m/fpu\libc.a(lib_a-impure.o)
 .text          0x00000000        0x0 c:/siliconlabs/simplicitystudio/v4/developer/toolchains/gnu_arm/4.9_2015q3/bin/../lib/gcc/arm-none-eabi/4.9.3/../../../../arm-none-eabi/lib/armv7e-m/fpu\libc.a(lib_a-init.o)
 .data          0x00000000        0x0 c:/siliconlabs/simplicitystudio/v4/developer/toolchains/gnu_arm/4.9_2015q3/bin/../lib/gcc/arm-none-eabi/4.9.3/../../../../arm-none-eabi/lib/armv7e-m/fpu\libc.a(lib_a-init.o)
 .bss           0x00000000        0x0 c:/siliconlabs/simplicitystudio/v4/developer/toolchains/gnu_arm/4.9_2015q3/bin/../lib/gcc/arm-none-eabi/4.9.3/../../../../arm-none-eabi/lib/armv7e-m/fpu\libc.a(lib_a-init.o)
 .data          0x00000000        0x0 c:/siliconlabs/simplicitystudio/v4/developer/toolchains/gnu_arm/4.9_2015q3/bin/../lib/gcc/arm-none-eabi/4.9.3/../../../../arm-none-eabi/lib/armv7e-m/fpu\libc.a(lib_a-memcpy.o)
 .bss           0x00000000        0x0 c:/siliconlabs/simplicitystudio/v4/developer/toolchains/gnu_arm/4.9_2015q3/bin/../lib/gcc/arm-none-eabi/4.9.3/../../../../arm-none-eabi/lib/armv7e-m/fpu\libc.a(lib_a-memcpy.o)
 .text          0x00000000        0x0 c:/siliconlabs/simplicitystudio/v4/developer/toolchains/gnu_arm/4.9_2015q3/bin/../lib/gcc/arm-none-eabi/4.9.3/../../../../arm-none-eabi/lib/armv7e-m/fpu\libc.a(lib_a-memset.o)
 .data          0x00000000        0x0 c:/siliconlabs/simplicitystudio/v4/developer/toolchains/gnu_arm/4.9_2015q3/bin/../lib/gcc/arm-none-eabi/4.9.3/../../../../arm-none-eabi/lib/armv7e-m/fpu\libc.a(lib_a-memset.o)
 .bss           0x00000000        0x0 c:/siliconlabs/simplicitystudio/v4/developer/toolchains/gnu_arm/4.9_2015q3/bin/../lib/gcc/arm-none-eabi/4.9.3/../../../../arm-none-eabi/lib/armv7e-m/fpu\libc.a(lib_a-memset.o)
 .text          0x00000000        0x0 c:/siliconlabs/simplicitystudio/v4/developer/toolchains/gnu_arm/4.9_2015q3/bin/../lib/gcc/arm-none-eabi/4.9.3/../../../../arm-none-eabi/lib/armv7e-m/fpu\libc.a(lib_a-snprintf.o)
 .data          0x00000000        0x0 c:/siliconlabs/simplicitystudio/v4/developer/toolchains/gnu_arm/4.9_2015q3/bin/../lib/gcc/arm-none-eabi/4.9.3/../../../../arm-none-eabi/lib/armv7e-m/fpu\libc.a(lib_a-snprintf.o)
 .bss           0x00000000        0x0 c:/siliconlabs/simplicitystudio/v4/developer/toolchains/gnu_arm/4.9_2015q3/bin/../lib/gcc/arm-none-eabi/4.9.3/../../../../arm-none-eabi/lib/armv7e-m/fpu\libc.a(lib_a-snprintf.o)
 .text._snprintf_r
                0x00000000       0x90 c:/siliconlabs/simplicitystudio/v4/developer/toolchains/gnu_arm/4.9_2015q3/bin/../lib/gcc/arm-none-eabi/4.9.3/../../../../arm-none-eabi/lib/armv7e-m/fpu\libc.a(lib_a-snprintf.o)
 .text          0x00000000        0x0 c:/siliconlabs/simplicitystudio/v4/developer/toolchains/gnu_arm/4.9_2015q3/bin/../lib/gcc/arm-none-eabi/4.9.3/../../../../arm-none-eabi/lib/armv7e-m/fpu\libc.a(lib_a-strlen.o)
 .data          0x00000000        0x0 c:/siliconlabs/simplicitystudio/v4/developer/toolchains/gnu_arm/4.9_2015q3/bin/../lib/gcc/arm-none-eabi/4.9.3/../../../../arm-none-eabi/lib/armv7e-m/fpu\libc.a(lib_a-strlen.o)
 .bss           0x00000000        0x0 c:/siliconlabs/simplicitystudio/v4/developer/toolchains/gnu_arm/4.9_2015q3/bin/../lib/gcc/arm-none-eabi/4.9.3/../../../../arm-none-eabi/lib/armv7e-m/fpu\libc.a(lib_a-strlen.o)
 .text          0x00000000        0x0 c:/siliconlabs/simplicitystudio/v4/developer/toolchains/gnu_arm/4.9_2015q3/bin/../lib/gcc/arm-none-eabi/4.9.3/../../../../arm-none-eabi/lib/armv7e-m/fpu\libc.a(lib_a-svfprintf.o)
 .data          0x00000000        0x0 c:/siliconlabs/simplicitystudio/v4/developer/toolchains/gnu_arm/4.9_2015q3/bin/../lib/gcc/arm-none-eabi/4.9.3/../../../../arm-none-eabi/lib/armv7e-m/fpu\libc.a(lib_a-svfprintf.o)
 .bss           0x00000000        0x0 c:/siliconlabs/simplicitystudio/v4/developer/toolchains/gnu_arm/4.9_2015q3/bin/../lib/gcc/arm-none-eabi/4.9.3/../../../../arm-none-eabi/lib/armv7e-m/fpu\libc.a(lib_a-svfprintf.o)
 .text          0x00000000        0x0 c:/siliconlabs/simplicitystudio/v4/developer/toolchains/gnu_arm/4.9_2015q3/bin/../lib/gcc/arm-none-eabi/4.9.3/../../../../arm-none-eabi/lib/armv7e-m/fpu\libc.a(lib_a-__call_atexit.o)
 .data          0x00000000        0x0 c:/siliconlabs/simplicitystudio/v4/developer/toolchains/gnu_arm/4.9_2015q3/bin/../lib/gcc/arm-none-eabi/4.9.3/../../../../arm-none-eabi/lib/armv7e-m/fpu\libc.a(lib_a-__call_atexit.o)
 .bss           0x00000000        0x0 c:/siliconlabs/simplicitystudio/v4/developer/toolchains/gnu_arm/4.9_2015q3/bin/../lib/gcc/arm-none-eabi/4.9.3/../../../../arm-none-eabi/lib/armv7e-m/fpu\libc.a(lib_a-__call_atexit.o)
 .text          0x00000000        0x0 c:/siliconlabs/simplicitystudio/v4/developer/toolchains/gnu_arm/4.9_2015q3/bin/../lib/gcc/arm-none-eabi/4.9.3/../../../../arm-none-eabi/lib/armv7e-m/fpu\libc.a(lib_a-atexit.o)
 .data          0x00000000        0x0 c:/siliconlabs/simplicitystudio/v4/developer/toolchains/gnu_arm/4.9_2015q3/bin/../lib/gcc/arm-none-eabi/4.9.3/../../../../arm-none-eabi/lib/armv7e-m/fpu\libc.a(lib_a-atexit.o)
 .bss           0x00000000        0x0 c:/siliconlabs/simplicitystudio/v4/developer/toolchains/gnu_arm/4.9_2015q3/bin/../lib/gcc/arm-none-eabi/4.9.3/../../../../arm-none-eabi/lib/armv7e-m/fpu\libc.a(lib_a-atexit.o)
 .text          0x00000000        0x0 c:/siliconlabs/simplicitystudio/v4/developer/toolchains/gnu_arm/4.9_2015q3/bin/../lib/gcc/arm-none-eabi/4.9.3/../../../../arm-none-eabi/lib/armv7e-m/fpu\libc.a(lib_a-dtoa.o)
 .data          0x00000000        0x0 c:/siliconlabs/simplicitystudio/v4/developer/toolchains/gnu_arm/4.9_2015q3/bin/../lib/gcc/arm-none-eabi/4.9.3/../../../../arm-none-eabi/lib/armv7e-m/fpu\libc.a(lib_a-dtoa.o)
 .bss           0x00000000        0x0 c:/siliconlabs/simplicitystudio/v4/developer/toolchains/gnu_arm/4.9_2015q3/bin/../lib/gcc/arm-none-eabi/4.9.3/../../../../arm-none-eabi/lib/armv7e-m/fpu\libc.a(lib_a-dtoa.o)
 .text          0x00000000        0x0 c:/siliconlabs/simplicitystudio/v4/developer/toolchains/gnu_arm/4.9_2015q3/bin/../lib/gcc/arm-none-eabi/4.9.3/../../../../arm-none-eabi/lib/armv7e-m/fpu\libc.a(lib_a-fini.o)
 .data          0x00000000        0x0 c:/siliconlabs/simplicitystudio/v4/developer/toolchains/gnu_arm/4.9_2015q3/bin/../lib/gcc/arm-none-eabi/4.9.3/../../../../arm-none-eabi/lib/armv7e-m/fpu\libc.a(lib_a-fini.o)
 .bss           0x00000000        0x0 c:/siliconlabs/simplicitystudio/v4/developer/toolchains/gnu_arm/4.9_2015q3/bin/../lib/gcc/arm-none-eabi/4.9.3/../../../../arm-none-eabi/lib/armv7e-m/fpu\libc.a(lib_a-fini.o)
 .text          0x00000000        0x0 c:/siliconlabs/simplicitystudio/v4/developer/toolchains/gnu_arm/4.9_2015q3/bin/../lib/gcc/arm-none-eabi/4.9.3/../../../../arm-none-eabi/lib/armv7e-m/fpu\libc.a(lib_a-locale.o)
 .data          0x00000000        0x0 c:/siliconlabs/simplicitystudio/v4/developer/toolchains/gnu_arm/4.9_2015q3/bin/../lib/gcc/arm-none-eabi/4.9.3/../../../../arm-none-eabi/lib/armv7e-m/fpu\libc.a(lib_a-locale.o)
 .bss           0x00000000        0x0 c:/siliconlabs/simplicitystudio/v4/developer/toolchains/gnu_arm/4.9_2015q3/bin/../lib/gcc/arm-none-eabi/4.9.3/../../../../arm-none-eabi/lib/armv7e-m/fpu\libc.a(lib_a-locale.o)
 .text._setlocale_r
                0x00000000       0x44 c:/siliconlabs/simplicitystudio/v4/developer/toolchains/gnu_arm/4.9_2015q3/bin/../lib/gcc/arm-none-eabi/4.9.3/../../../../arm-none-eabi/lib/armv7e-m/fpu\libc.a(lib_a-locale.o)
 .text.__locale_charset
                0x00000000        0x8 c:/siliconlabs/simplicitystudio/v4/developer/toolchains/gnu_arm/4.9_2015q3/bin/../lib/gcc/arm-none-eabi/4.9.3/../../../../arm-none-eabi/lib/armv7e-m/fpu\libc.a(lib_a-locale.o)
 .text.__locale_mb_cur_max
                0x00000000        0xc c:/siliconlabs/simplicitystudio/v4/developer/toolchains/gnu_arm/4.9_2015q3/bin/../lib/gcc/arm-none-eabi/4.9.3/../../../../arm-none-eabi/lib/armv7e-m/fpu\libc.a(lib_a-locale.o)
 .text.__locale_msgcharset
                0x00000000        0x8 c:/siliconlabs/simplicitystudio/v4/developer/toolchains/gnu_arm/4.9_2015q3/bin/../lib/gcc/arm-none-eabi/4.9.3/../../../../arm-none-eabi/lib/armv7e-m/fpu\libc.a(lib_a-locale.o)
 .text.__locale_cjk_lang
                0x00000000        0x4 c:/siliconlabs/simplicitystudio/v4/developer/toolchains/gnu_arm/4.9_2015q3/bin/../lib/gcc/arm-none-eabi/4.9.3/../../../../arm-none-eabi/lib/armv7e-m/fpu\libc.a(lib_a-locale.o)
 .text.setlocale
                0x00000000       0x10 c:/siliconlabs/simplicitystudio/v4/developer/toolchains/gnu_arm/4.9_2015q3/bin/../lib/gcc/arm-none-eabi/4.9.3/../../../../arm-none-eabi/lib/armv7e-m/fpu\libc.a(lib_a-locale.o)
 .text.localeconv
                0x00000000        0x8 c:/siliconlabs/simplicitystudio/v4/developer/toolchains/gnu_arm/4.9_2015q3/bin/../lib/gcc/arm-none-eabi/4.9.3/../../../../arm-none-eabi/lib/armv7e-m/fpu\libc.a(lib_a-locale.o)
 .data.lc_message_charset
                0x00000000       0x20 c:/siliconlabs/simplicitystudio/v4/developer/toolchains/gnu_arm/4.9_2015q3/bin/../lib/gcc/arm-none-eabi/4.9.3/../../../../arm-none-eabi/lib/armv7e-m/fpu\libc.a(lib_a-locale.o)
 .bss._PathLocale
                0x00000000        0x4 c:/siliconlabs/simplicitystudio/v4/developer/toolchains/gnu_arm/4.9_2015q3/bin/../lib/gcc/arm-none-eabi/4.9.3/../../../../arm-none-eabi/lib/armv7e-m/fpu\libc.a(lib_a-locale.o)
 .bss.__nlocale_changed
                0x00000000        0x4 c:/siliconlabs/simplicitystudio/v4/developer/toolchains/gnu_arm/4.9_2015q3/bin/../lib/gcc/arm-none-eabi/4.9.3/../../../../arm-none-eabi/lib/armv7e-m/fpu\libc.a(lib_a-locale.o)
 .bss.__mlocale_changed
                0x00000000        0x4 c:/siliconlabs/simplicitystudio/v4/developer/toolchains/gnu_arm/4.9_2015q3/bin/../lib/gcc/arm-none-eabi/4.9.3/../../../../arm-none-eabi/lib/armv7e-m/fpu\libc.a(lib_a-locale.o)
 .data.lc_ctype_charset
                0x00000000       0x20 c:/siliconlabs/simplicitystudio/v4/developer/toolchains/gnu_arm/4.9_2015q3/bin/../lib/gcc/arm-none-eabi/4.9.3/../../../../arm-none-eabi/lib/armv7e-m/fpu\libc.a(lib_a-locale.o)
 .data.__mb_cur_max
                0x00000000        0x4 c:/siliconlabs/simplicitystudio/v4/developer/toolchains/gnu_arm/4.9_2015q3/bin/../lib/gcc/arm-none-eabi/4.9.3/../../../../arm-none-eabi/lib/armv7e-m/fpu\libc.a(lib_a-locale.o)
 .text          0x00000000        0x0 c:/siliconlabs/simplicitystudio/v4/developer/toolchains/gnu_arm/4.9_2015q3/bin/../lib/gcc/arm-none-eabi/4.9.3/../../../../arm-none-eabi/lib/armv7e-m/fpu\libc.a(lib_a-mallocr.o)
 .data          0x00000000        0x0 c:/siliconlabs/simplicitystudio/v4/developer/toolchains/gnu_arm/4.9_2015q3/bin/../lib/gcc/arm-none-eabi/4.9.3/../../../../arm-none-eabi/lib/armv7e-m/fpu\libc.a(lib_a-mallocr.o)
 .bss           0x00000000        0x0 c:/siliconlabs/simplicitystudio/v4/developer/toolchains/gnu_arm/4.9_2015q3/bin/../lib/gcc/arm-none-eabi/4.9.3/../../../../arm-none-eabi/lib/armv7e-m/fpu\libc.a(lib_a-mallocr.o)
 .text          0x00000000        0x0 c:/siliconlabs/simplicitystudio/v4/developer/toolchains/gnu_arm/4.9_2015q3/bin/../lib/gcc/arm-none-eabi/4.9.3/../../../../arm-none-eabi/lib/armv7e-m/fpu\libc.a(lib_a-memchr.o)
 .data          0x00000000        0x0 c:/siliconlabs/simplicitystudio/v4/developer/toolchains/gnu_arm/4.9_2015q3/bin/../lib/gcc/arm-none-eabi/4.9.3/../../../../arm-none-eabi/lib/armv7e-m/fpu\libc.a(lib_a-memchr.o)
 .bss           0x00000000        0x0 c:/siliconlabs/simplicitystudio/v4/developer/toolchains/gnu_arm/4.9_2015q3/bin/../lib/gcc/arm-none-eabi/4.9.3/../../../../arm-none-eabi/lib/armv7e-m/fpu\libc.a(lib_a-memchr.o)
 .text          0x00000000        0x0 c:/siliconlabs/simplicitystudio/v4/developer/toolchains/gnu_arm/4.9_2015q3/bin/../lib/gcc/arm-none-eabi/4.9.3/../../../../arm-none-eabi/lib/armv7e-m/fpu\libc.a(lib_a-mlock.o)
 .data          0x00000000        0x0 c:/siliconlabs/simplicitystudio/v4/developer/toolchains/gnu_arm/4.9_2015q3/bin/../lib/gcc/arm-none-eabi/4.9.3/../../../../arm-none-eabi/lib/armv7e-m/fpu\libc.a(lib_a-mlock.o)
 .bss           0x00000000        0x0 c:/siliconlabs/simplicitystudio/v4/developer/toolchains/gnu_arm/4.9_2015q3/bin/../lib/gcc/arm-none-eabi/4.9.3/../../../../arm-none-eabi/lib/armv7e-m/fpu\libc.a(lib_a-mlock.o)
 .text          0x00000000        0x0 c:/siliconlabs/simplicitystudio/v4/developer/toolchains/gnu_arm/4.9_2015q3/bin/../lib/gcc/arm-none-eabi/4.9.3/../../../../arm-none-eabi/lib/armv7e-m/fpu\libc.a(lib_a-mprec.o)
 .data          0x00000000        0x0 c:/siliconlabs/simplicitystudio/v4/developer/toolchains/gnu_arm/4.9_2015q3/bin/../lib/gcc/arm-none-eabi/4.9.3/../../../../arm-none-eabi/lib/armv7e-m/fpu\libc.a(lib_a-mprec.o)
 .bss           0x00000000        0x0 c:/siliconlabs/simplicitystudio/v4/developer/toolchains/gnu_arm/4.9_2015q3/bin/../lib/gcc/arm-none-eabi/4.9.3/../../../../arm-none-eabi/lib/armv7e-m/fpu\libc.a(lib_a-mprec.o)
 .text.__s2b    0x00000000       0x98 c:/siliconlabs/simplicitystudio/v4/developer/toolchains/gnu_arm/4.9_2015q3/bin/../lib/gcc/arm-none-eabi/4.9.3/../../../../arm-none-eabi/lib/armv7e-m/fpu\libc.a(lib_a-mprec.o)
 .text.__ulp    0x00000000       0x50 c:/siliconlabs/simplicitystudio/v4/developer/toolchains/gnu_arm/4.9_2015q3/bin/../lib/gcc/arm-none-eabi/4.9.3/../../../../arm-none-eabi/lib/armv7e-m/fpu\libc.a(lib_a-mprec.o)
 .text.__b2d    0x00000000       0xc4 c:/siliconlabs/simplicitystudio/v4/developer/toolchains/gnu_arm/4.9_2015q3/bin/../lib/gcc/arm-none-eabi/4.9.3/../../../../arm-none-eabi/lib/armv7e-m/fpu\libc.a(lib_a-mprec.o)
 .text.__ratio  0x00000000       0x60 c:/siliconlabs/simplicitystudio/v4/developer/toolchains/gnu_arm/4.9_2015q3/bin/../lib/gcc/arm-none-eabi/4.9.3/../../../../arm-none-eabi/lib/armv7e-m/fpu\libc.a(lib_a-mprec.o)
 .text._mprec_log10
                0x00000000       0x38 c:/siliconlabs/simplicitystudio/v4/developer/toolchains/gnu_arm/4.9_2015q3/bin/../lib/gcc/arm-none-eabi/4.9.3/../../../../arm-none-eabi/lib/armv7e-m/fpu\libc.a(lib_a-mprec.o)
 .text.__copybits
                0x00000000       0x48 c:/siliconlabs/simplicitystudio/v4/developer/toolchains/gnu_arm/4.9_2015q3/bin/../lib/gcc/arm-none-eabi/4.9.3/../../../../arm-none-eabi/lib/armv7e-m/fpu\libc.a(lib_a-mprec.o)
 .text.__any_on
                0x00000000       0x60 c:/siliconlabs/simplicitystudio/v4/developer/toolchains/gnu_arm/4.9_2015q3/bin/../lib/gcc/arm-none-eabi/4.9.3/../../../../arm-none-eabi/lib/armv7e-m/fpu\libc.a(lib_a-mprec.o)
 .rodata.__mprec_tinytens
                0x00000000       0x28 c:/siliconlabs/simplicitystudio/v4/developer/toolchains/gnu_arm/4.9_2015q3/bin/../lib/gcc/arm-none-eabi/4.9.3/../../../../arm-none-eabi/lib/armv7e-m/fpu\libc.a(lib_a-mprec.o)
 .text          0x00000000        0x0 c:/siliconlabs/simplicitystudio/v4/developer/toolchains/gnu_arm/4.9_2015q3/bin/../lib/gcc/arm-none-eabi/4.9.3/../../../../arm-none-eabi/lib/armv7e-m/fpu\libc.a(lib_a-s_fpclassify.o)
 .data          0x00000000        0x0 c:/siliconlabs/simplicitystudio/v4/developer/toolchains/gnu_arm/4.9_2015q3/bin/../lib/gcc/arm-none-eabi/4.9.3/../../../../arm-none-eabi/lib/armv7e-m/fpu\libc.a(lib_a-s_fpclassify.o)
 .bss           0x00000000        0x0 c:/siliconlabs/simplicitystudio/v4/developer/toolchains/gnu_arm/4.9_2015q3/bin/../lib/gcc/arm-none-eabi/4.9.3/../../../../arm-none-eabi/lib/armv7e-m/fpu\libc.a(lib_a-s_fpclassify.o)
 .text          0x00000000        0x0 c:/siliconlabs/simplicitystudio/v4/developer/toolchains/gnu_arm/4.9_2015q3/bin/../lib/gcc/arm-none-eabi/4.9.3/../../../../arm-none-eabi/lib/armv7e-m/fpu\libc.a(lib_a-sbrkr.o)
 .data          0x00000000        0x0 c:/siliconlabs/simplicitystudio/v4/developer/toolchains/gnu_arm/4.9_2015q3/bin/../lib/gcc/arm-none-eabi/4.9.3/../../../../arm-none-eabi/lib/armv7e-m/fpu\libc.a(lib_a-sbrkr.o)
 .bss           0x00000000        0x0 c:/siliconlabs/simplicitystudio/v4/developer/toolchains/gnu_arm/4.9_2015q3/bin/../lib/gcc/arm-none-eabi/4.9.3/../../../../arm-none-eabi/lib/armv7e-m/fpu\libc.a(lib_a-sbrkr.o)
 .text          0x00000000      0x2dc c:/siliconlabs/simplicitystudio/v4/developer/toolchains/gnu_arm/4.9_2015q3/bin/../lib/gcc/arm-none-eabi/4.9.3/../../../../arm-none-eabi/lib/armv7e-m/fpu\libc.a(lib_a-strcmp.o)
 .data          0x00000000        0x0 c:/siliconlabs/simplicitystudio/v4/developer/toolchains/gnu_arm/4.9_2015q3/bin/../lib/gcc/arm-none-eabi/4.9.3/../../../../arm-none-eabi/lib/armv7e-m/fpu\libc.a(lib_a-strcmp.o)
 .bss           0x00000000        0x0 c:/siliconlabs/simplicitystudio/v4/developer/toolchains/gnu_arm/4.9_2015q3/bin/../lib/gcc/arm-none-eabi/4.9.3/../../../../arm-none-eabi/lib/armv7e-m/fpu\libc.a(lib_a-strcmp.o)
 .text          0x00000000        0x0 c:/siliconlabs/simplicitystudio/v4/developer/toolchains/gnu_arm/4.9_2015q3/bin/../lib/gcc/arm-none-eabi/4.9.3/../../../../arm-none-eabi/lib/armv7e-m/fpu\libc.a(lib_a-svfiprintf.o)
 .data          0x00000000        0x0 c:/siliconlabs/simplicitystudio/v4/developer/toolchains/gnu_arm/4.9_2015q3/bin/../lib/gcc/arm-none-eabi/4.9.3/../../../../arm-none-eabi/lib/armv7e-m/fpu\libc.a(lib_a-svfiprintf.o)
 .bss           0x00000000        0x0 c:/siliconlabs/simplicitystudio/v4/developer/toolchains/gnu_arm/4.9_2015q3/bin/../lib/gcc/arm-none-eabi/4.9.3/../../../../arm-none-eabi/lib/armv7e-m/fpu\libc.a(lib_a-svfiprintf.o)
 .text._svfiprintf_r
                0x00000000      0xaa0 c:/siliconlabs/simplicitystudio/v4/developer/toolchains/gnu_arm/4.9_2015q3/bin/../lib/gcc/arm-none-eabi/4.9.3/../../../../arm-none-eabi/lib/armv7e-m/fpu\libc.a(lib_a-svfiprintf.o)
 .rodata.blanks.6854
                0x00000000       0x10 c:/siliconlabs/simplicitystudio/v4/developer/toolchains/gnu_arm/4.9_2015q3/bin/../lib/gcc/arm-none-eabi/4.9.3/../../../../arm-none-eabi/lib/armv7e-m/fpu\libc.a(lib_a-svfiprintf.o)
 .rodata.str1.4
                0x00000000       0x2f c:/siliconlabs/simplicitystudio/v4/developer/toolchains/gnu_arm/4.9_2015q3/bin/../lib/gcc/arm-none-eabi/4.9.3/../../../../arm-none-eabi/lib/armv7e-m/fpu\libc.a(lib_a-svfiprintf.o)
 .rodata.zeroes.6855
                0x00000000       0x10 c:/siliconlabs/simplicitystudio/v4/developer/toolchains/gnu_arm/4.9_2015q3/bin/../lib/gcc/arm-none-eabi/4.9.3/../../../../arm-none-eabi/lib/armv7e-m/fpu\libc.a(lib_a-svfiprintf.o)
 .text          0x00000000        0x0 c:/siliconlabs/simplicitystudio/v4/developer/toolchains/gnu_arm/4.9_2015q3/bin/../lib/gcc/arm-none-eabi/4.9.3/../../../../arm-none-eabi/lib/armv7e-m/fpu\libc.a(lib_a-__atexit.o)
 .data          0x00000000        0x0 c:/siliconlabs/simplicitystudio/v4/developer/toolchains/gnu_arm/4.9_2015q3/bin/../lib/gcc/arm-none-eabi/4.9.3/../../../../arm-none-eabi/lib/armv7e-m/fpu\libc.a(lib_a-__atexit.o)
 .bss           0x00000000        0x0 c:/siliconlabs/simplicitystudio/v4/developer/toolchains/gnu_arm/4.9_2015q3/bin/../lib/gcc/arm-none-eabi/4.9.3/../../../../arm-none-eabi/lib/armv7e-m/fpu\libc.a(lib_a-__atexit.o)
 .text          0x00000000        0x0 c:/siliconlabs/simplicitystudio/v4/developer/toolchains/gnu_arm/4.9_2015q3/bin/../lib/gcc/arm-none-eabi/4.9.3/../../../../arm-none-eabi/lib/armv7e-m/fpu\libc.a(lib_a-callocr.o)
 .data          0x00000000        0x0 c:/siliconlabs/simplicitystudio/v4/developer/toolchains/gnu_arm/4.9_2015q3/bin/../lib/gcc/arm-none-eabi/4.9.3/../../../../arm-none-eabi/lib/armv7e-m/fpu\libc.a(lib_a-callocr.o)
 .bss           0x00000000        0x0 c:/siliconlabs/simplicitystudio/v4/developer/toolchains/gnu_arm/4.9_2015q3/bin/../lib/gcc/arm-none-eabi/4.9.3/../../../../arm-none-eabi/lib/armv7e-m/fpu\libc.a(lib_a-callocr.o)
 .text          0x00000000        0x0 c:/siliconlabs/simplicitystudio/v4/developer/toolchains/gnu_arm/4.9_2015q3/bin/../lib/gcc/arm-none-eabi/4.9.3/../../../../arm-none-eabi/lib/armv7e-m/fpu\libc.a(lib_a-freer.o)
 .data          0x00000000        0x0 c:/siliconlabs/simplicitystudio/v4/developer/toolchains/gnu_arm/4.9_2015q3/bin/../lib/gcc/arm-none-eabi/4.9.3/../../../../arm-none-eabi/lib/armv7e-m/fpu\libc.a(lib_a-freer.o)
 .bss           0x00000000        0x0 c:/siliconlabs/simplicitystudio/v4/developer/toolchains/gnu_arm/4.9_2015q3/bin/../lib/gcc/arm-none-eabi/4.9.3/../../../../arm-none-eabi/lib/armv7e-m/fpu\libc.a(lib_a-freer.o)
 .text          0x00000000        0x0 c:/siliconlabs/simplicitystudio/v4/developer/toolchains/gnu_arm/4.9_2015q3/bin/../lib/gcc/arm-none-eabi/4.9.3/../../../../arm-none-eabi/lib/armv7e-m/fpu\libc.a(lib_a-memmove.o)
 .data          0x00000000        0x0 c:/siliconlabs/simplicitystudio/v4/developer/toolchains/gnu_arm/4.9_2015q3/bin/../lib/gcc/arm-none-eabi/4.9.3/../../../../arm-none-eabi/lib/armv7e-m/fpu\libc.a(lib_a-memmove.o)
 .bss           0x00000000        0x0 c:/siliconlabs/simplicitystudio/v4/developer/toolchains/gnu_arm/4.9_2015q3/bin/../lib/gcc/arm-none-eabi/4.9.3/../../../../arm-none-eabi/lib/armv7e-m/fpu\libc.a(lib_a-memmove.o)
 .text          0x00000000        0x0 c:/siliconlabs/simplicitystudio/v4/developer/toolchains/gnu_arm/4.9_2015q3/bin/../lib/gcc/arm-none-eabi/4.9.3/../../../../arm-none-eabi/lib/armv7e-m/fpu\libc.a(lib_a-reallocr.o)
 .data          0x00000000        0x0 c:/siliconlabs/simplicitystudio/v4/developer/toolchains/gnu_arm/4.9_2015q3/bin/../lib/gcc/arm-none-eabi/4.9.3/../../../../arm-none-eabi/lib/armv7e-m/fpu\libc.a(lib_a-reallocr.o)
 .bss           0x00000000        0x0 c:/siliconlabs/simplicitystudio/v4/developer/toolchains/gnu_arm/4.9_2015q3/bin/../lib/gcc/arm-none-eabi/4.9.3/../../../../arm-none-eabi/lib/armv7e-m/fpu\libc.a(lib_a-reallocr.o)
 .text          0x00000000        0x0 c:/siliconlabs/simplicitystudio/v4/developer/toolchains/gnu_arm/4.9_2015q3/bin/../lib/gcc/arm-none-eabi/4.9.3/../../../../arm-none-eabi/lib/armv7e-m/fpu\libc.a(lib_a-reent.o)
 .data          0x00000000        0x0 c:/siliconlabs/simplicitystudio/v4/developer/toolchains/gnu_arm/4.9_2015q3/bin/../lib/gcc/arm-none-eabi/4.9.3/../../../../arm-none-eabi/lib/armv7e-m/fpu\libc.a(lib_a-reent.o)
 .bss           0x00000000        0x0 c:/siliconlabs/simplicitystudio/v4/developer/toolchains/gnu_arm/4.9_2015q3/bin/../lib/gcc/arm-none-eabi/4.9.3/../../../../arm-none-eabi/lib/armv7e-m/fpu\libc.a(lib_a-reent.o)
 .text.cleanup_glue
                0x00000000       0x1c c:/siliconlabs/simplicitystudio/v4/developer/toolchains/gnu_arm/4.9_2015q3/bin/../lib/gcc/arm-none-eabi/4.9.3/../../../../arm-none-eabi/lib/armv7e-m/fpu\libc.a(lib_a-reent.o)
 .text._reclaim_reent
                0x00000000       0x88 c:/siliconlabs/simplicitystudio/v4/developer/toolchains/gnu_arm/4.9_2015q3/bin/../lib/gcc/arm-none-eabi/4.9.3/../../../../arm-none-eabi/lib/armv7e-m/fpu\libc.a(lib_a-reent.o)
 .text          0x00000000        0x0 c:/siliconlabs/simplicitystudio/v4/developer/toolchains/gnu_arm/4.9_2015q3/bin/../lib/gcc/arm-none-eabi/4.9.3/../../../../arm-none-eabi/lib/armv7e-m/fpu\libnosys.a(sbrk.o)
 .data          0x00000000        0x0 c:/siliconlabs/simplicitystudio/v4/developer/toolchains/gnu_arm/4.9_2015q3/bin/../lib/gcc/arm-none-eabi/4.9.3/../../../../arm-none-eabi/lib/armv7e-m/fpu\libnosys.a(sbrk.o)
 .bss           0x00000000        0x0 c:/siliconlabs/simplicitystudio/v4/developer/toolchains/gnu_arm/4.9_2015q3/bin/../lib/gcc/arm-none-eabi/4.9.3/../../../../arm-none-eabi/lib/armv7e-m/fpu\libnosys.a(sbrk.o)
 .text          0x00000000        0x0 c:/siliconlabs/simplicitystudio/v4/developer/toolchains/gnu_arm/4.9_2015q3/bin/../lib/gcc/arm-none-eabi/4.9.3/../../../../arm-none-eabi/lib/armv7e-m/fpu\libnosys.a(_exit.o)
 .data          0x00000000        0x0 c:/siliconlabs/simplicitystudio/v4/developer/toolchains/gnu_arm/4.9_2015q3/bin/../lib/gcc/arm-none-eabi/4.9.3/../../../../arm-none-eabi/lib/armv7e-m/fpu\libnosys.a(_exit.o)
 .bss           0x00000000        0x0 c:/siliconlabs/simplicitystudio/v4/developer/toolchains/gnu_arm/4.9_2015q3/bin/../lib/gcc/arm-none-eabi/4.9.3/../../../../arm-none-eabi/lib/armv7e-m/fpu\libnosys.a(_exit.o)
 .data          0x00000000        0x0 c:/siliconlabs/simplicitystudio/v4/developer/toolchains/gnu_arm/4.9_2015q3/bin/../lib/gcc/arm-none-eabi/4.9.3/armv7e-m/fpu\libgcc.a(_arm_addsubdf3.o)
 .bss           0x00000000        0x0 c:/siliconlabs/simplicitystudio/v4/developer/toolchains/gnu_arm/4.9_2015q3/bin/../lib/gcc/arm-none-eabi/4.9.3/armv7e-m/fpu\libgcc.a(_arm_addsubdf3.o)
 .data          0x00000000        0x0 c:/siliconlabs/simplicitystudio/v4/developer/toolchains/gnu_arm/4.9_2015q3/bin/../lib/gcc/arm-none-eabi/4.9.3/armv7e-m/fpu\libgcc.a(_arm_cmpdf2.o)
 .bss           0x00000000        0x0 c:/siliconlabs/simplicitystudio/v4/developer/toolchains/gnu_arm/4.9_2015q3/bin/../lib/gcc/arm-none-eabi/4.9.3/armv7e-m/fpu\libgcc.a(_arm_cmpdf2.o)
 .text          0x00000000        0x0 c:/siliconlabs/simplicitystudio/v4/developer/toolchains/gnu_arm/4.9_2015q3/bin/../lib/gcc/arm-none-eabi/4.9.3/armv7e-m/fpu/crtend.o
 .data          0x00000000        0x0 c:/siliconlabs/simplicitystudio/v4/developer/toolchains/gnu_arm/4.9_2015q3/bin/../lib/gcc/arm-none-eabi/4.9.3/armv7e-m/fpu/crtend.o
 .bss           0x00000000        0x0 c:/siliconlabs/simplicitystudio/v4/developer/toolchains/gnu_arm/4.9_2015q3/bin/../lib/gcc/arm-none-eabi/4.9.3/armv7e-m/fpu/crtend.o
 .text          0x00000000        0x0 c:/siliconlabs/simplicitystudio/v4/developer/toolchains/gnu_arm/4.9_2015q3/bin/../lib/gcc/arm-none-eabi/4.9.3/armv7e-m/fpu/crtn.o
 .data          0x00000000        0x0 c:/siliconlabs/simplicitystudio/v4/developer/toolchains/gnu_arm/4.9_2015q3/bin/../lib/gcc/arm-none-eabi/4.9.3/armv7e-m/fpu/crtn.o
 .bss           0x00000000        0x0 c:/siliconlabs/simplicitystudio/v4/developer/toolchains/gnu_arm/4.9_2015q3/bin/../lib/gcc/arm-none-eabi/4.9.3/armv7e-m/fpu/crtn.o

Memory Configuration

Name             Origin             Length             Attributes
FLASH_BOOTLOADER 0x0fe10000         0x00004000         xr
FLASH            0x00000000         0x0007b000         xr
RAM              0x20003000         0x0000cffc         xrw
*default*        0x00000000         0xffffffff

Linker script and memory map

LOAD c:/siliconlabs/simplicitystudio/v4/developer/toolchains/gnu_arm/4.9_2015q3/bin/../lib/gcc/arm-none-eabi/4.9.3/armv7e-m/fpu/crti.o
LOAD c:/siliconlabs/simplicitystudio/v4/developer/toolchains/gnu_arm/4.9_2015q3/bin/../lib/gcc/arm-none-eabi/4.9.3/armv7e-m/fpu/crtbegin.o
LOAD c:/siliconlabs/simplicitystudio/v4/developer/toolchains/gnu_arm/4.9_2015q3/bin/../lib/gcc/arm-none-eabi/4.9.3/../../../../arm-none-eabi/lib/armv7e-m/fpu/crt0.o
LOAD ./advertisement.o
LOAD ./app.o
LOAD ./app_hw.o
LOAD ./app_ui.o
LOAD ./application_properties.o
LOAD ./beacon.o
LOAD ./gatt_db.o
LOAD ./graphics.o
LOAD ./htm.o
LOAD ./ia.o
LOAD ./init_app.o
LOAD ./init_board.o
LOAD ./init_mcu.o
LOAD ./main.o
LOAD ./pti.o
LOAD ./emlib/em_adc.o
LOAD ./emlib/em_cmu.o
LOAD ./emlib/em_crypto.o
LOAD ./emlib/em_gpio.o
LOAD ./emlib/em_i2c.o
LOAD ./emlib/em_ldma.o
LOAD ./emlib/em_letimer.o
LOAD ./emlib/em_leuart.o
LOAD ./emlib/em_msc.o
LOAD ./emlib/em_rmu.o
LOAD ./emlib/em_rtcc.o
LOAD ./emlib/em_system.o
LOAD ./emlib/em_usart.o
LOAD ./hardware/kit/common/bsp/bsp_stk.o
LOAD ./hardware/kit/common/bsp/bsp_stk_leds.o
LOAD ./hardware/kit/common/drivers/display.o
LOAD ./hardware/kit/common/drivers/displayls013b7dh03.o
LOAD ./hardware/kit/common/drivers/displaypalemlib.o
LOAD ./hardware/kit/common/drivers/i2cspm.o
LOAD ./hardware/kit/common/drivers/mx25flash_spi.o
LOAD ./hardware/kit/common/drivers/si7013.o
LOAD ./hardware/kit/common/drivers/tempsens.o
LOAD ./hardware/kit/common/drivers/udelay.o
LOAD ./platform/Device/SiliconLabs/EFR32BG13P/Source/GCC/startup_efr32bg13p.o
LOAD ./platform/emdrv/dmadrv/src/dmadrv.o
LOAD ./platform/emlib/src/em_cryotimer.o
LOAD ./platform/middleware/glib/dmd/display/dmd_display.o
LOAD ./platform/middleware/glib/glib/bmp.o
LOAD ./platform/middleware/glib/glib/glib.o
LOAD ./platform/middleware/glib/glib/glib_bitmap.o
LOAD ./platform/middleware/glib/glib/glib_circle.o
LOAD ./platform/middleware/glib/glib/glib_font_narrow_6x8.o
LOAD ./platform/middleware/glib/glib/glib_font_normal_8x8.o
LOAD ./platform/middleware/glib/glib/glib_font_number_16x20.o
LOAD ./platform/middleware/glib/glib/glib_line.o
LOAD ./platform/middleware/glib/glib/glib_polygon.o
LOAD ./platform/middleware/glib/glib/glib_rectangle.o
LOAD ./platform/middleware/glib/glib/glib_string.o
LOAD ./src/InitDevice.o
LOAD ./src/bma280.o
LOAD ./src/cmu.o
LOAD ./src/gpio.o
LOAD ./src/letimer0.o
LOAD ./src/spi.o
LOAD C:\Users\Satyanarayana\SimplicityStudio\v4_workspace\soc-smartPhone_NoBuff\protocol\bluetooth_2.6\lib\EFR32BG13P\GCC\bgapi.a
LOAD C:\Users\Satyanarayana\SimplicityStudio\v4_workspace\soc-smartPhone_NoBuff\protocol\bluetooth_2.6\lib\EFR32BG13P\EABI\binstack.o
LOAD C:\Users\Satyanarayana\SimplicityStudio\v4_workspace\soc-smartPhone_NoBuff\protocol\bluetooth_2.6\lib\EFR32BG13P\EABI\stack.a
LOAD c:/siliconlabs/simplicitystudio/v4/developer/toolchains/gnu_arm/4.9_2015q3/bin/../lib/gcc/arm-none-eabi/4.9.3/../../../../arm-none-eabi/lib/armv7e-m/fpu\libm.a
START GROUP
LOAD c:/siliconlabs/simplicitystudio/v4/developer/toolchains/gnu_arm/4.9_2015q3/bin/../lib/gcc/arm-none-eabi/4.9.3/armv7e-m/fpu\libgcc.a
LOAD c:/siliconlabs/simplicitystudio/v4/developer/toolchains/gnu_arm/4.9_2015q3/bin/../lib/gcc/arm-none-eabi/4.9.3/../../../../arm-none-eabi/lib/armv7e-m/fpu\libc.a
LOAD c:/siliconlabs/simplicitystudio/v4/developer/toolchains/gnu_arm/4.9_2015q3/bin/../lib/gcc/arm-none-eabi/4.9.3/../../../../arm-none-eabi/lib/armv7e-m/fpu\libnosys.a
END GROUP
START GROUP
LOAD c:/siliconlabs/simplicitystudio/v4/developer/toolchains/gnu_arm/4.9_2015q3/bin/../lib/gcc/arm-none-eabi/4.9.3/armv7e-m/fpu\libgcc.a
LOAD c:/siliconlabs/simplicitystudio/v4/developer/toolchains/gnu_arm/4.9_2015q3/bin/../lib/gcc/arm-none-eabi/4.9.3/../../../../arm-none-eabi/lib/armv7e-m/fpu\libg.a
LOAD c:/siliconlabs/simplicitystudio/v4/developer/toolchains/gnu_arm/4.9_2015q3/bin/../lib/gcc/arm-none-eabi/4.9.3/../../../../arm-none-eabi/lib/armv7e-m/fpu\libc.a
END GROUP
LOAD c:/siliconlabs/simplicitystudio/v4/developer/toolchains/gnu_arm/4.9_2015q3/bin/../lib/gcc/arm-none-eabi/4.9.3/armv7e-m/fpu/crtend.o
LOAD c:/siliconlabs/simplicitystudio/v4/developer/toolchains/gnu_arm/4.9_2015q3/bin/../lib/gcc/arm-none-eabi/4.9.3/armv7e-m/fpu/crtn.o

.text_bootloader
                0x0fe10000        0x0
 *(.binbootloader*)
                0x0fe10000                . = ALIGN (0x4000)

.text_stack_bin
                0x00000000    0x1e777
 *(.binstack*)
 .binstack      0x00000000    0x1e777 C:\Users\Satyanarayana\SimplicityStudio\v4_workspace\soc-smartPhone_NoBuff\protocol\bluetooth_2.6\lib\EFR32BG13P\EABI\binstack.o

.text_signature
                0x0001e777       0x89
                0x0001e7b7                . = (. + 0x40)
 *fill*         0x0001e777       0x40 
                0x0001e800                . = ALIGN (0x800)
 *fill*         0x0001e7b7       0x49 
                0x0001e800                __text_start__ = .

.text_app       0x0001e800     0xd554
 *(.AAT)
 .AAT           0x0001e800       0x80 ./main.o
                0x0001e800                AppAddressTable
 *(.vectors)
 .vectors       0x0001e880       0xfc ./platform/Device/SiliconLabs/EFR32BG13P/Source/GCC/startup_efr32bg13p.o
                0x0001e880                __Vectors
                0x0001e97c                __Vectors_End = .
                0x000000fc                __Vectors_Size = (__Vectors_End - __Vectors)
                0x0001e97c                __end__ = .
 *(.gecko_configuration)
 *(.xo_configuration)
 *(.gatt_header)
 .gatt_header   0x0001e97c       0x34 ./gatt_db.o
                0x0001e97c                bg_gattdb_data
 *(.gatt_data)
 .gatt_data     0x0001e9b0      0x291 ./gatt_db.o
                0x0001e9b0                bg_gattdb_data_uuidtable_16_map
                0x0001e9d4                bg_gattdb_data_uuidtable_128_map
                0x0001e9f4                bg_gattdb_data_attribute_field_28
                0x0001e9fc                bg_gattdb_data_attribute_field_27
                0x0001ea14                bg_gattdb_data_attribute_field_26
                0x0001ea28                bg_gattdb_data_attribute_field_25
                0x0001ea30                bg_gattdb_data_attribute_field_24
                0x0001ea38                bg_gattdb_data_attribute_field_23
                0x0001ea3c                bg_gattdb_data_attribute_field_22
                0x0001ea44                bg_gattdb_data_attribute_field_21
                0x0001ea4c                bg_gattdb_data_attribute_field_19
                0x0001ea54                bg_gattdb_data_attribute_field_18
                0x0001ea5c                bg_gattdb_data_attribute_field_17
                0x0001ea64                bg_gattdb_data_attribute_field_16
                0x0001ea6c                bg_gattdb_data_attribute_field_14
                0x0001ea74                bg_gattdb_data_attribute_field_13
                0x0001ea7c                bg_gattdb_data_attribute_field_12
                0x0001ea80                bg_gattdb_data_attribute_field_11
                0x0001ea90                bg_gattdb_data_attribute_field_10
                0x0001ea98                bg_gattdb_data_attribute_field_9
                0x0001ea9c                bg_gattdb_data_attribute_field_8
                0x0001eaa0                bg_gattdb_data_attribute_field_7
                0x0001eaa8                bg_gattdb_data_attribute_field_6
                0x0001eab0                bg_gattdb_data_attribute_field_5
                0x0001eab8                bg_gattdb_data_attribute_field_4
                0x0001eabc                bg_gattdb_data_attribute_field_2
                0x0001eac4                bg_gattdb_data_attribute_field_1
                0x0001eacc                bg_gattdb_data_attribute_field_0
                0x0001ead0                bg_gattdb_data_attributes_map
                0x0001ec2c                bg_gattdb_data_attributes_dynamic_mapping_map
                0x0001ec3c                bg_gattdb_data_adv_uuid16_map
                0x0001ec40                bg_gattdb_data_adv_uuid128_map
 *(.application_properties)
 *fill*         0x0001ec41        0x3 
 .application_properties
                0x0001ec44       0x38 ./application_properties.o
                0x0001ec44                applicationProperties
 *(.text*)
 .text          0x0001ec7c       0x5c c:/siliconlabs/simplicitystudio/v4/developer/toolchains/gnu_arm/4.9_2015q3/bin/../lib/gcc/arm-none-eabi/4.9.3/armv7e-m/fpu/crtbegin.o
 .text          0x0001ecd8       0x74 c:/siliconlabs/simplicitystudio/v4/developer/toolchains/gnu_arm/4.9_2015q3/bin/../lib/gcc/arm-none-eabi/4.9.3/../../../../arm-none-eabi/lib/armv7e-m/fpu/crt0.o
                0x0001ecd8                _start
                0x0001ecd8                _mainCRTStartup
 .text.gecko_cmd_le_gap_set_mode
                0x0001ed4c       0x58 ./advertisement.o
 .text.advSetup
                0x0001eda4       0x38 ./advertisement.o
                0x0001eda4                advSetup
 .text.advSwitchAdvMessage
                0x0001eddc       0x3c ./advertisement.o
                0x0001eddc                advSwitchAdvMessage
 .text.advConnectionStarted
                0x0001ee18       0x18 ./advertisement.o
                0x0001ee18                advConnectionStarted
 .text.gecko_cmd_system_get_bt_address
                0x0001ee30       0x38 ./app.o
 .text.gecko_cmd_gatt_server_write_attribute_value
                0x0001ee68       0x98 ./app.o
 .text.appInit  0x0001ef00       0x50 ./app.o
                0x0001ef00                appInit
 .text.appHwInit
                0x0001ef50       0x2c ./app_hw.o
                0x0001ef50                appHwInit
 .text.appHwInitTempSens
                0x0001ef7c       0x28 ./app_hw.o
                0x0001ef7c                appHwInitTempSens
 .text.appBtnCback
                0x0001efa4       0x18 ./app_hw.o
 .text.BUS_RegBitRead
                0x0001efbc       0x2c ./app_ui.o
 .text.GPIO_PinInGet
                0x0001efe8       0x54 ./app_ui.o
 .text.gecko_cmd_hardware_set_soft_timer
                0x0001f03c       0x60 ./app_ui.o
 .text.appUiBtnRegister
                0x0001f09c       0x1c ./app_ui.o
                0x0001f09c                appUiBtnRegister
 .text.appUiLedOff
                0x0001f0b8       0x1c ./app_ui.o
                0x0001f0b8                appUiLedOff
 .text.appUiLedLowAlert
                0x0001f0d4       0x1c ./app_ui.o
                0x0001f0d4                appUiLedLowAlert
 .text.appUiLedHighAlert
                0x0001f0f0       0x1c ./app_ui.o
                0x0001f0f0                appUiLedHighAlert
 .text.appUiInit
                0x0001f10c       0x1c ./app_ui.o
                0x0001f10c                appUiInit
 .text.appUiTick
                0x0001f128       0x1c ./app_ui.o
                0x0001f128                appUiTick
 .text.appUiWriteString
                0x0001f144       0x14 ./app_ui.o
                0x0001f144                appUiWriteString
 .text.appUiLedTimerCback
                0x0001f158       0xb4 ./app_ui.o
 .text.appUiButtonTimerCallback
                0x0001f20c      0x110 ./app_ui.o
 .text.appUiPushButtonsGet
                0x0001f31c       0x4c ./app_ui.o
 .text.appUiBtnSendEvent
                0x0001f368       0x1c ./app_ui.o
 .text.gecko_cmd_le_gap_set_mode
                0x0001f384       0x58 ./beacon.o
 .text.gecko_cmd_le_gap_set_adv_data
                0x0001f3dc       0x8c ./beacon.o
 .text.bcnSetupAdvBeaconing
                0x0001f468       0x38 ./beacon.o
                0x0001f468                bcnSetupAdvBeaconing
 .text.graphWriteString
                0x0001f4a0       0x40 ./graphics.o
                0x0001f4a0                graphWriteString
 .text.graphPrintCenter
                0x0001f4e0       0xc0 ./graphics.o
 .text.gecko_cmd_gatt_server_send_characteristic_notification
                0x0001f5a0       0x9c ./htm.o
 .text.gecko_cmd_hardware_set_soft_timer
                0x0001f63c       0x60 ./htm.o
 .text.htmInit  0x0001f69c       0x1c ./htm.o
                0x0001f69c                htmInit
 .text.htmTemperatureCharStatusChange
                0x0001f6b8       0x38 ./htm.o
                0x0001f6b8                htmTemperatureCharStatusChange
 .text.htmTemperatureMeasure
                0x0001f6f0       0x34 ./htm.o
                0x0001f6f0                htmTemperatureMeasure
 .text.htmBuildTempMeas
                0x0001f724      0x14c ./htm.o
 .text.htmProcMsg
                0x0001f870      0x1a4 ./htm.o
 .text.iaImmediateAlertWrite
                0x0001fa14       0x4c ./ia.o
                0x0001fa14                iaImmediateAlertWrite
 .text.GPIO_IntEnable
                0x0001fa60       0x28 ./main.o
 .text.gecko_initCoexHAL
                0x0001fa88        0xc ./main.o
 .text.gecko_init
                0x0001fa94       0x44 ./main.o
 .text.gecko_cmd_system_reset
                0x0001fad8       0x40 ./main.o
 .text.gecko_cmd_gatt_server_send_user_write_response
                0x0001fb18       0x64 ./main.o
 .text.gecko_cmd_endpoint_close
                0x0001fb7c       0x48 ./main.o
 .text.button_init
                0x0001fbc4       0x20 ./main.o
 .text.led_init
                0x0001fbe4       0x20 ./main.o
 *fill*         0x0001fc04        0x4 
 .text.main     0x0001fc08      0x180 ./main.o
                0x0001fc08                main
 .text.BUS_RegBitWrite
                0x0001fd88       0x2c ./emlib/em_cmu.o
 .text.BUS_RegBitRead
                0x0001fdb4       0x2c ./emlib/em_cmu.o
 .text.BUS_RegMaskedSet
                0x0001fde0       0x24 ./emlib/em_cmu.o
 .text.BUS_RegMaskedClear
                0x0001fe04       0x24 ./emlib/em_cmu.o
 .text.BUS_RegMaskedWrite
                0x0001fe28       0x24 ./emlib/em_cmu.o
 .text.CMU_Log2ToDiv
                0x0001fe4c       0x1c ./emlib/em_cmu.o
 .text.CMU_PrescToLog2
                0x0001fe68       0x28 ./emlib/em_cmu.o
 .text.EMU_VScaleWait
                0x0001fe90       0x1c ./emlib/em_cmu.o
 .text.EMU_VScaleGet
                0x0001feac       0x1c ./emlib/em_cmu.o
 .text.setHfLeConfig
                0x0001fec8       0x64 ./emlib/em_cmu.o
 .text.auxClkGet
                0x0001ff2c       0x20 ./emlib/em_cmu.o
 .text.hfSrcClkGet
                0x0001ff4c       0x2c ./emlib/em_cmu.o
 .text.dbgClkGet
                0x0001ff78       0x3c ./emlib/em_cmu.o
 .text.adcAsyncClkGet
                0x0001ffb4       0x80 ./emlib/em_cmu.o
 .text.flashWaitStateControl
                0x00020034       0xac ./emlib/em_cmu.o
 .text.flashWaitStateMax
                0x000200e0       0x14 ./emlib/em_cmu.o
 .text.CMU_UpdateWaitStates
                0x000200f4       0x18 ./emlib/em_cmu.o
                0x000200f4                CMU_UpdateWaitStates
 .text.getRegIshUpperVal
                0x0002010c       0x38 ./emlib/em_cmu.o
 .text.getHfxoTuningMode
                0x00020144       0x1c ./emlib/em_cmu.o
 .text.setHfxoTuningMode
                0x00020160       0x28 ./emlib/em_cmu.o
 .text.lfClkGet
                0x00020188       0xf4 ./emlib/em_cmu.o
 .text.syncReg  0x0002027c       0x38 ./emlib/em_cmu.o
 .text.CMU_AUXHFRCODevinfoGet
                0x000202b4       0xdc ./emlib/em_cmu.o
 .text.CMU_AUXHFRCOBandSet
                0x00020390       0x98 ./emlib/em_cmu.o
                0x00020390                CMU_AUXHFRCOBandSet
 .text.CMU_ClockDivSet
                0x00020428       0x1c ./emlib/em_cmu.o
                0x00020428                CMU_ClockDivSet
 .text.CMU_ClockEnable
                0x00020444       0xcc ./emlib/em_cmu.o
                0x00020444                CMU_ClockEnable
 .text.CMU_ClockFreqGet
                0x00020510      0x1f8 ./emlib/em_cmu.o
                0x00020510                CMU_ClockFreqGet
 .text.CMU_ClockPrescSet
                0x00020708      0x268 ./emlib/em_cmu.o
                0x00020708                CMU_ClockPrescSet
 .text.CMU_ClockSelectGet
                0x00020970      0x1d0 ./emlib/em_cmu.o
                0x00020970                CMU_ClockSelectGet
 .text.CMU_ClockSelectSet
                0x00020b40      0x2d0 ./emlib/em_cmu.o
                0x00020b40                CMU_ClockSelectSet
 .text.CMU_HFRCOBandGet
                0x00020e10       0x18 ./emlib/em_cmu.o
                0x00020e10                CMU_HFRCOBandGet
 .text.CMU_HFXOAutostartEnable
                0x00020e28       0x84 ./emlib/em_cmu.o
                0x00020e28                CMU_HFXOAutostartEnable
 .text.CMU_HFXOInit
                0x00020eac       0xe4 ./emlib/em_cmu.o
                0x00020eac                CMU_HFXOInit
 .text.CMU_LFXOInit
                0x00020f90       0x50 ./emlib/em_cmu.o
                0x00020f90                CMU_LFXOInit
 .text.CMU_OscillatorEnable
                0x00020fe0      0x19c ./emlib/em_cmu.o
                0x00020fe0                CMU_OscillatorEnable
 .text.CMU_OscillatorTuningGet
                0x0002117c       0x74 ./emlib/em_cmu.o
                0x0002117c                CMU_OscillatorTuningGet
 .text.CMU_OscillatorTuningSet
                0x000211f0       0xfc ./emlib/em_cmu.o
                0x000211f0                CMU_OscillatorTuningSet
 .text.CMU_OscillatorTuningWait
                0x000212ec       0x8c ./emlib/em_cmu.o
                0x000212ec                CMU_OscillatorTuningWait
 .text.CMU_OscillatorTuningOptimize
                0x00021378       0x4c ./emlib/em_cmu.o
                0x00021378                CMU_OscillatorTuningOptimize
 .text.BUS_RegBitWrite
                0x000213c4       0x2c ./emlib/em_gpio.o
 .text.BUS_RegMaskedSet
                0x000213f0       0x24 ./emlib/em_gpio.o
 .text.BUS_RegMaskedClear
                0x00021414       0x24 ./emlib/em_gpio.o
 .text.BUS_RegMaskedWrite
                0x00021438       0x24 ./emlib/em_gpio.o
 .text.GPIO_PinOutClear
                0x0002145c       0x58 ./emlib/em_gpio.o
 .text.GPIO_PinOutSet
                0x000214b4       0x58 ./emlib/em_gpio.o
 .text.GPIO_ExtIntConfig
                0x0002150c      0x128 ./emlib/em_gpio.o
                0x0002150c                GPIO_ExtIntConfig
 .text.GPIO_PinModeSet
                0x00021634      0x108 ./emlib/em_gpio.o
                0x00021634                GPIO_PinModeSet
 .text.I2C_Transfer
                0x0002173c      0x454 ./emlib/em_i2c.o
                0x0002173c                I2C_Transfer
 .text.I2C_TransferInit
                0x00021b90       0xe8 ./emlib/em_i2c.o
                0x00021b90                I2C_TransferInit
 .text.LETIMER_CompareSet
                0x00021c78       0x58 ./emlib/em_letimer.o
                0x00021c78                LETIMER_CompareSet
 .text.LETIMER_Init
                0x00021cd0       0xcc ./emlib/em_letimer.o
                0x00021cd0                LETIMER_Init
 .text.RTCC_Init
                0x00021d9c       0x60 ./emlib/em_rtcc.o
                0x00021d9c                RTCC_Init
 .text.USART_BaudrateSyncSet
                0x00021dfc       0x40 ./emlib/em_usart.o
                0x00021dfc                USART_BaudrateSyncSet
 .text.USART_Enable
                0x00021e3c       0x58 ./emlib/em_usart.o
                0x00021e3c                USART_Enable
 .text.USART_InitSync
                0x00021e94       0xf8 ./emlib/em_usart.o
                0x00021e94                USART_InitSync
 .text.USART_Reset
                0x00021f8c       0xb0 ./emlib/em_usart.o
                0x00021f8c                USART_Reset
 .text.USART_SpiTransfer
                0x0002203c       0x40 ./emlib/em_usart.o
                0x0002203c                USART_SpiTransfer
 .text.BUS_RegMaskedSet
                0x0002207c       0x24 ./hardware/kit/common/bsp/bsp_stk_leds.o
 .text.BUS_RegMaskedClear
                0x000220a0       0x24 ./hardware/kit/common/bsp/bsp_stk_leds.o
 .text.GPIO_PinOutClear
                0x000220c4       0x58 ./hardware/kit/common/bsp/bsp_stk_leds.o
 .text.GPIO_PinOutSet
                0x0002211c       0x58 ./hardware/kit/common/bsp/bsp_stk_leds.o
 .text.BSP_LedClear
                0x00022174       0x44 ./hardware/kit/common/bsp/bsp_stk_leds.o
                0x00022174                BSP_LedClear
 .text.BSP_LedSet
                0x000221b8       0x44 ./hardware/kit/common/bsp/bsp_stk_leds.o
                0x000221b8                BSP_LedSet
 .text.I2CSPM_Transfer
                0x000221fc       0x40 ./hardware/kit/common/drivers/i2cspm.o
                0x000221fc                I2CSPM_Transfer
 .text.BUS_RegMaskedSet
                0x0002223c       0x24 ./hardware/kit/common/drivers/mx25flash_spi.o
 .text.BUS_RegMaskedClear
                0x00022260       0x24 ./hardware/kit/common/drivers/mx25flash_spi.o
 .text.GPIO_PinOutClear
                0x00022284       0x58 ./hardware/kit/common/drivers/mx25flash_spi.o
 .text.GPIO_PinOutSet
                0x000222dc       0x58 ./hardware/kit/common/drivers/mx25flash_spi.o
 .text.MX25_init
                0x00022334       0x98 ./hardware/kit/common/drivers/mx25flash_spi.o
                0x00022334                MX25_init
 .text.Wait_Flash_WarmUp
                0x000223cc       0x24 ./hardware/kit/common/drivers/mx25flash_spi.o
                0x000223cc                Wait_Flash_WarmUp
 .text.Initial_Spi
                0x000223f0        0xc ./hardware/kit/common/drivers/mx25flash_spi.o
                0x000223f0                Initial_Spi
 .text.CS_Low   0x000223fc       0x10 ./hardware/kit/common/drivers/mx25flash_spi.o
                0x000223fc                CS_Low
 .text.CS_High  0x0002240c       0x10 ./hardware/kit/common/drivers/mx25flash_spi.o
                0x0002240c                CS_High
 .text.InsertDummyCycle
                0x0002241c       0x38 ./hardware/kit/common/drivers/mx25flash_spi.o
                0x0002241c                InsertDummyCycle
 .text.SendByte
                0x00022454       0x3c ./hardware/kit/common/drivers/mx25flash_spi.o
                0x00022454                SendByte
 .text.MX25_DP  0x00022490       0x34 ./hardware/kit/common/drivers/mx25flash_spi.o
                0x00022490                MX25_DP
 .text.Si7013_Detect
                0x000224c4       0x64 ./hardware/kit/common/drivers/si7013.o
                0x000224c4                Si7013_Detect
 .text.Reset_Handler
                0x00022528       0x38 ./platform/Device/SiliconLabs/EFR32BG13P/Source/GCC/startup_efr32bg13p.o
                0x00022528                Reset_Handler
 .text.Default_Handler
                0x00022560        0x8 ./platform/Device/SiliconLabs/EFR32BG13P/Source/GCC/startup_efr32bg13p.o
                0x00022560                DebugMon_Handler
                0x00022560                USART0_TX_IRQHandler
                0x00022560                PRORTC_IRQHandler
                0x00022560                I2C0_IRQHandler
                0x00022560                HardFault_Handler
                0x00022560                SysTick_Handler
                0x00022560                USART1_RX_IRQHandler
                0x00022560                PendSV_Handler
                0x00022560                NMI_Handler
                0x00022560                SYNTH_IRQHandler
                0x00022560                I2C1_IRQHandler
                0x00022560                WTIMER0_IRQHandler
                0x00022560                CRYPTO0_IRQHandler
                0x00022560                WDOG0_IRQHandler
                0x00022560                USART1_TX_IRQHandler
                0x00022560                SMU_IRQHandler
                0x00022560                MSC_IRQHandler
                0x00022560                ADC0_IRQHandler
                0x00022560                UsageFault_Handler
                0x00022560                WDOG1_IRQHandler
                0x00022560                LEUART0_IRQHandler
                0x00022560                FPUEH_IRQHandler
                0x00022560                GPIO_EVEN_IRQHandler
                0x00022560                VDAC0_IRQHandler
                0x00022560                CSEN_IRQHandler
                0x00022560                CRYPTO1_IRQHandler
                0x00022560                TIMER0_IRQHandler
                0x00022560                TIMER1_IRQHandler
                0x00022560                TRNG0_IRQHandler
                0x00022560                RFSENSE_IRQHandler
                0x00022560                BUFC_IRQHandler
                0x00022560                MODEM_IRQHandler
                0x00022560                USART2_RX_IRQHandler
                0x00022560                Default_Handler
                0x00022560                RAC_SEQ_IRQHandler
                0x00022560                FRC_PRI_IRQHandler
                0x00022560                FRC_IRQHandler
                0x00022560                CRYOTIMER_IRQHandler
                0x00022560                PCNT0_IRQHandler
                0x00022560                AGC_IRQHandler
                0x00022560                ACMP0_IRQHandler
                0x00022560                USART0_RX_IRQHandler
                0x00022560                MemManage_Handler
                0x00022560                SVC_Handler
                0x00022560                RTCC_IRQHandler
                0x00022560                CMU_IRQHandler
                0x00022560                RAC_RSM_IRQHandler
                0x00022560                LESENSE_IRQHandler
                0x00022560                PROTIMER_IRQHandler
                0x00022560                BusFault_Handler
                0x00022560                USART2_TX_IRQHandler
                0x00022560                IDAC0_IRQHandler
 .text.LDMA_IRQHandler
                0x00022568       0xe0 ./platform/emdrv/dmadrv/src/dmadrv.o
                0x00022568                LDMA_IRQHandler
 .text.DMD_setClippingArea
                0x00022648       0x8c ./platform/middleware/glib/dmd/display/dmd_display.o
                0x00022648                DMD_setClippingArea
 .text.DMD_writeColor
                0x000226d4      0x2b4 ./platform/middleware/glib/dmd/display/dmd_display.o
                0x000226d4                DMD_writeColor
 .text.DMD_updateDisplay
                0x00022988      0x114 ./platform/middleware/glib/dmd/display/dmd_display.o
                0x00022988                DMD_updateDisplay
 .text.GLIB_colorTranslate24bppInl
                0x00022a9c       0x34 ./platform/middleware/glib/glib/glib.o
 .text.GLIB_clear
                0x00022ad0       0x70 ./platform/middleware/glib/glib/glib.o
                0x00022ad0                GLIB_clear
 .text.GLIB_resetDisplayClippingArea
                0x00022b40       0x30 ./platform/middleware/glib/glib/glib.o
                0x00022b40                GLIB_resetDisplayClippingArea
 .text.GLIB_colorTranslate24bpp
                0x00022b70       0x20 ./platform/middleware/glib/glib/glib.o
                0x00022b70                GLIB_colorTranslate24bpp
 .text.GLIB_drawPixel
                0x00022b90       0x6c ./platform/middleware/glib/glib/glib.o
                0x00022b90                GLIB_drawPixel
 .text.GLIB_drawPixelColor
                0x00022bfc       0x6c ./platform/middleware/glib/glib/glib.o
                0x00022bfc                GLIB_drawPixelColor
 .text.GLIB_rectContainsPoint
                0x00022c68       0x4c ./platform/middleware/glib/glib/glib_rectangle.o
                0x00022c68                GLIB_rectContainsPoint
 .text.GLIB_drawChar
                0x00022cb4      0x1d4 ./platform/middleware/glib/glib/glib_string.o
                0x00022cb4                GLIB_drawChar
 .text.GLIB_drawString
                0x00022e88       0xd0 ./platform/middleware/glib/glib/glib_string.o
                0x00022e88                GLIB_drawString
 .text.CHIP_Init
                0x00022f58       0x50 ./src/InitDevice.o
 .text.enter_DefaultMode_from_RESET
                0x00022fa8       0x30 ./src/InitDevice.o
                0x00022fa8                enter_DefaultMode_from_RESET
 .text.EMU_enter_DefaultMode_from_RESET
                0x00022fd8       0xb4 ./src/InitDevice.o
                0x00022fd8                EMU_enter_DefaultMode_from_RESET
 .text.LFXO_enter_DefaultMode_from_RESET
                0x0002308c        0xc ./src/InitDevice.o
                0x0002308c                LFXO_enter_DefaultMode_from_RESET
 .text.CMU_enter_DefaultMode_from_RESET
                0x00023098      0x138 ./src/InitDevice.o
                0x00023098                CMU_enter_DefaultMode_from_RESET
 .text.RTCC_enter_DefaultMode_from_RESET
                0x000231d0       0x4c ./src/InitDevice.o
                0x000231d0                RTCC_enter_DefaultMode_from_RESET
 .text.GPCRC_enter_DefaultMode_from_RESET
                0x0002321c        0xc ./src/InitDevice.o
                0x0002321c                GPCRC_enter_DefaultMode_from_RESET
 .text.LDMA_enter_DefaultMode_from_RESET
                0x00023228        0xc ./src/InitDevice.o
                0x00023228                LDMA_enter_DefaultMode_from_RESET
 .text.PRS_enter_DefaultMode_from_RESET
                0x00023234       0x20 ./src/InitDevice.o
                0x00023234                PRS_enter_DefaultMode_from_RESET
 .text.CRYPTO0_enter_DefaultMode_from_RESET
                0x00023254        0xc ./src/InitDevice.o
                0x00023254                CRYPTO0_enter_DefaultMode_from_RESET
 .text.PORTIO_enter_DefaultMode_from_RESET
                0x00023260        0xc ./src/InitDevice.o
                0x00023260                PORTIO_enter_DefaultMode_from_RESET
 .text.BMA280_RegisterRead
                0x0002326c       0x64 ./src/bma280.o
                0x0002326c                BMA280_RegisterRead
 .text.BMA280_RegisterWrite
                0x000232d0       0x58 ./src/bma280.o
                0x000232d0                BMA280_RegisterWrite
 .text.BMA280_Enable
                0x00023328       0x64 ./src/bma280.o
                0x00023328                BMA280_Enable
 .text.cmu_init
                0x0002338c       0xd0 ./src/cmu.o
                0x0002338c                cmu_init
 .text.NVIC_EnableIRQ
                0x0002345c       0x2c ./src/gpio.o
 .text.BUS_RegMaskedSet
                0x00023488       0x24 ./src/gpio.o
 .text.GPIO_IntClear
                0x000234ac       0x20 ./src/gpio.o
 .text.GPIO_IntEnable
                0x000234cc       0x28 ./src/gpio.o
 .text.GPIO_IntGet
                0x000234f4       0x18 ./src/gpio.o
 .text.GPIO_PinOutSet
                0x0002350c       0x58 ./src/gpio.o
 .text.GPIO_PinOutToggle
                0x00023564       0x58 ./src/gpio.o
 .text.GPIO_IntConfig
                0x000235bc       0x34 ./src/gpio.o
 .text.gpio_init
                0x000235f0       0x38 ./src/gpio.o
                0x000235f0                gpio_init
 .text.gpio_interrupt_int
                0x00023628       0x40 ./src/gpio.o
                0x00023628                gpio_interrupt_int
 .text.GPIO_ODD_IRQHandler
                0x00023668      0x264 ./src/gpio.o
                0x00023668                GPIO_ODD_IRQHandler
 .text.NVIC_EnableIRQ
                0x000238cc       0x2c ./src/letimer0.o
 .text.LETIMER_IntClear
                0x000238f8       0x1c ./src/letimer0.o
 .text.LETIMER_IntEnable
                0x00023914       0x20 ./src/letimer0.o
 .text.LETIMER_IntGet
                0x00023934       0x18 ./src/letimer0.o
 .text.LETIMER0_IRQHandler
                0x0002394c       0x3c ./src/letimer0.o
                0x0002394c                LETIMER0_IRQHandler
 .text.LETIMER0_call
                0x00023988       0x94 ./src/letimer0.o
                0x00023988                LETIMER0_call
 .text.spi_init
                0x00023a1c       0x98 ./src/spi.o
                0x00023a1c                spi_init
 .text          0x00023ab4       0x18 C:\Users\Satyanarayana\SimplicityStudio\v4_workspace\soc-smartPhone_NoBuff\protocol\bluetooth_2.6\lib\EFR32BG13P\GCC\bgapi.a(gecko_bgapi_hardware.c.obj)
                0x00023ab4                gecko_bgapi_class_hardware_init
 .text          0x00023acc       0x18 C:\Users\Satyanarayana\SimplicityStudio\v4_workspace\soc-smartPhone_NoBuff\protocol\bluetooth_2.6\lib\EFR32BG13P\GCC\bgapi.a(gecko_bgapi_test.c.obj)
                0x00023acc                gecko_bgapi_class_test_init
 .text          0x00023ae4       0x18 C:\Users\Satyanarayana\SimplicityStudio\v4_workspace\soc-smartPhone_NoBuff\protocol\bluetooth_2.6\lib\EFR32BG13P\GCC\bgapi.a(gecko_bgapi_dfu.c.obj)
                0x00023ae4                gecko_bgapi_class_dfu_init
 .text          0x00023afc       0x18 C:\Users\Satyanarayana\SimplicityStudio\v4_workspace\soc-smartPhone_NoBuff\protocol\bluetooth_2.6\lib\EFR32BG13P\GCC\bgapi.a(gecko_bgapi_gap.c.obj)
                0x00023afc                gecko_bgapi_class_le_gap_init
 .text          0x00023b14       0x18 C:\Users\Satyanarayana\SimplicityStudio\v4_workspace\soc-smartPhone_NoBuff\protocol\bluetooth_2.6\lib\EFR32BG13P\GCC\bgapi.a(gecko_bgapi_gatt.c.obj)
                0x00023b14                gecko_bgapi_class_gatt_init
 .text          0x00023b2c       0x18 C:\Users\Satyanarayana\SimplicityStudio\v4_workspace\soc-smartPhone_NoBuff\protocol\bluetooth_2.6\lib\EFR32BG13P\GCC\bgapi.a(gecko_bgapi_gatt_server.c.obj)
                0x00023b2c                gecko_bgapi_class_gatt_server_init
 .text          0x00023b44       0x18 C:\Users\Satyanarayana\SimplicityStudio\v4_workspace\soc-smartPhone_NoBuff\protocol\bluetooth_2.6\lib\EFR32BG13P\GCC\bgapi.a(gecko_bgapi_flash.c.obj)
                0x00023b44                gecko_bgapi_class_flash_init
 .text          0x00023b5c       0x18 C:\Users\Satyanarayana\SimplicityStudio\v4_workspace\soc-smartPhone_NoBuff\protocol\bluetooth_2.6\lib\EFR32BG13P\GCC\bgapi.a(gecko_bgapi_sm.c.obj)
                0x00023b5c                gecko_bgapi_class_sm_init
 .text          0x00023b74       0x18 C:\Users\Satyanarayana\SimplicityStudio\v4_workspace\soc-smartPhone_NoBuff\protocol\bluetooth_2.6\lib\EFR32BG13P\GCC\bgapi.a(gecko_bgapi_system.c.obj)
                0x00023b74                gecko_bgapi_class_system_init
 .text          0x00023b8c       0x18 C:\Users\Satyanarayana\SimplicityStudio\v4_workspace\soc-smartPhone_NoBuff\protocol\bluetooth_2.6\lib\EFR32BG13P\GCC\bgapi.a(gecko_bgapi_endpoint.c.obj)
                0x00023b8c                gecko_bgapi_class_endpoint_init
 .text          0x00023ba4       0x18 C:\Users\Satyanarayana\SimplicityStudio\v4_workspace\soc-smartPhone_NoBuff\protocol\bluetooth_2.6\lib\EFR32BG13P\GCC\bgapi.a(gecko_bgapi_le_connection.c.obj)
                0x00023ba4                gecko_bgapi_class_le_connection_init
 .text          0x00023bbc      0x1b8 C:\Users\Satyanarayana\SimplicityStudio\v4_workspace\soc-smartPhone_NoBuff\protocol\bluetooth_2.6\lib\EFR32BG13P\GCC\bgapi.a(bgapi_hardware.c.obj)
                0x00023bbc                bgapi_hardware_soft_timer_listener
                0x00023c90                lib_hardware_handler_init
                0x00023ca4                gecko_cmd_hardware_set_soft_timer
                0x00023cd8                gecko_cmd_hardware_set_lazy_soft_timer
                0x00023d0c                gecko_cmd_hardware_get_time
                0x00023d40                gecko_cmd_hardware_enable_dcdc
 .text          0x00023d74      0x3e0 C:\Users\Satyanarayana\SimplicityStudio\v4_workspace\soc-smartPhone_NoBuff\protocol\bluetooth_2.6\lib\EFR32BG13P\GCC\bgapi.a(bgapi_test_lib.c.obj)
                0x00023d74                bgapi_test_lib_msg_handler
                0x00023dcc                lib_test_handler_init
                0x00023dec                disable_interrupts
                0x00023e10                gecko_cmd_test_dtm_tx
                0x00023f28                gecko_cmd_test_dtm_rx
                0x00023f74                gecko_cmd_test_dtm_end
                0x00024008                gecko_cmd_test_debug_command
                0x000240d8                gecko_cmd_test_debug_counter
 .text          0x00024154       0x8c C:\Users\Satyanarayana\SimplicityStudio\v4_workspace\soc-smartPhone_NoBuff\protocol\bluetooth_2.6\lib\EFR32BG13P\GCC\bgapi.a(bgapi_dfu.c.obj)
                0x00024154                lib_dfu_handler_init
                0x00024156                gecko_cmd_dfu_reset
                0x0002415c                gecko_cmd_dfu_flash_set_address
                0x00024188                gecko_cmd_dfu_flash_upload
                0x000241b4                gecko_cmd_dfu_flash_upload_finish
 .text          0x000241e0      0x368 C:\Users\Satyanarayana\SimplicityStudio\v4_workspace\soc-smartPhone_NoBuff\protocol\bluetooth_2.6\lib\EFR32BG13P\GCC\bgapi.a(bgapi_gap.c.obj)
                0x000241e0                lib_le_gap_handler_init
                0x000241e2                gecko_cmd_le_gap_set_mode
                0x00024228                gecko_cmd_le_gap_bt5_set_mode
                0x0002426c                gecko_cmd_le_gap_set_adv_data
                0x000242bc                gecko_cmd_le_gap_bt5_set_adv_data
                0x00024318                gecko_cmd_le_gap_set_adv_timeout
                0x0002436c                gecko_cmd_le_gap_open
                0x000243bc                gecko_cmd_le_gap_discover
                0x000243e8                gecko_cmd_le_gap_end_procedure
                0x00024414                gecko_cmd_le_gap_set_adv_parameters
                0x00024448                gecko_cmd_le_gap_bt5_set_adv_parameters
                0x00024484                gecko_cmd_le_gap_set_scan_parameters
                0x000244b4                gecko_cmd_le_gap_set_conn_parameters
                0x000244ec                gecko_cmd_le_gap_set_phy
                0x00024518                gecko_cmd_le_gap_set_privacy_mode
 .text          0x00024548      0x660 C:\Users\Satyanarayana\SimplicityStudio\v4_workspace\soc-smartPhone_NoBuff\protocol\bluetooth_2.6\lib\EFR32BG13P\GCC\bgapi.a(bgapi_gatt_lib.c.obj)
                0x00024548                lib_gatt_handler_init
                0x0002454c                lib_gatt_server_handler_init
                0x0002454e                gecko_cmd_gatt_set_max_mtu
                0x00024588                gecko_cmd_gatt_discover_primary_services
                0x000245b4                gecko_cmd_gatt_discover_primary_services_by_uuid
                0x000245ec                gecko_cmd_gatt_find_included_services
                0x0002461c                gecko_cmd_gatt_discover_characteristics
                0x0002464c                gecko_cmd_gatt_discover_characteristics_by_uuid
                0x00024688                gecko_cmd_gatt_read_characteristic_value
                0x000246bc                gecko_cmd_gatt_read_characteristic_value_from_offset
                0x000246f4                gecko_cmd_gatt_read_characteristic_value_by_uuid
                0x00024730                gecko_cmd_gatt_read_multiple_characteristic_values
                0x00024760                gecko_cmd_gatt_write_characteristic_value
                0x00024794                gecko_cmd_gatt_write_characteristic_value_without_response
                0x000247d4                gecko_cmd_gatt_prepare_characteristic_value_write
                0x00024820                gecko_cmd_gatt_execute_characteristic_value_write
                0x00024850                gecko_cmd_gatt_set_characteristic_notification
                0x00024884                gecko_cmd_gatt_discover_descriptors
                0x000248b4                gecko_cmd_gatt_read_descriptor_value
                0x000248e4                gecko_cmd_gatt_write_descriptor_value
                0x00024918                gecko_cmd_gatt_server_read_attribute_value
                0x00024960                gecko_cmd_gatt_server_read_attribute_type
                0x000249a4                gecko_cmd_gatt_server_find_attribute
                0x000249e0                gecko_cmd_gatt_server_write_attribute_value
                0x00024a14                gecko_cmd_gatt_server_send_user_read_response
                0x00024a58                gecko_cmd_gatt_server_send_user_write_response
                0x00024a8c                gecko_cmd_gatt_server_send_characteristic_notification
                0x00024ad0                gecko_cmd_gatt_send_characteristic_confirmation
                0x00024afc                gecko_cmd_gatt_server_set_database
                0x00024b2c                gecko_cmd_gatt_server_set_capabilities
                0x00024b5c                gecko_cmd_gatt_prepare_characteristic_value_reliable_write
 .text          0x00024ba8      0x1d0 C:\Users\Satyanarayana\SimplicityStudio\v4_workspace\soc-smartPhone_NoBuff\protocol\bluetooth_2.6\lib\EFR32BG13P\GCC\bgapi.a(bgapi_ps.c.obj)
                0x00024ba8                bgapi_ps_dump_listener
                0x00024be8                lib_flash_handler_init
                0x00024bfc                gecko_cmd_flash_ps_dump
                0x00024c94                gecko_cmd_flash_ps_erase_all
                0x00024cc4                gecko_cmd_flash_ps_save
                0x00024d00                gecko_cmd_flash_ps_load
                0x00024d44                gecko_cmd_flash_ps_erase
 .text          0x00024d78      0x3bc C:\Users\Satyanarayana\SimplicityStudio\v4_workspace\soc-smartPhone_NoBuff\protocol\bluetooth_2.6\lib\EFR32BG13P\GCC\bgapi.a(bgapi_sm.c.obj)
                0x00024e40                lib_sm_handler_init
                0x00024e54                gecko_cmd_sm_list_all_bondings
                0x00024e8c                gecko_cmd_sm_increase_security
                0x00024eb8                gecko_cmd_sm_set_bondable_mode
                0x00024ee4                gecko_cmd_sm_delete_bonding
                0x00024f14                gecko_cmd_sm_delete_bondings
                0x00024f44                gecko_cmd_sm_configure
                0x00024f74                gecko_cmd_sm_enter_passkey
                0x00024fa4                gecko_cmd_sm_set_passkey
                0x00024fd0                gecko_cmd_sm_passkey_confirm
                0x00025000                gecko_cmd_sm_set_oob_data
                0x00025030                gecko_cmd_sm_set_sc_remote_oob_data
                0x00025060                gecko_cmd_sm_use_sc_oob
                0x000250a0                gecko_cmd_sm_store_bonding_configuration
                0x000250d4                gecko_cmd_sm_bonding_confirm
                0x00025104                gecko_cmd_sm_set_debug_mode
 .text          0x00025134      0x208 C:\Users\Satyanarayana\SimplicityStudio\v4_workspace\soc-smartPhone_NoBuff\protocol\bluetooth_2.6\lib\EFR32BG13P\GCC\bgapi.a(bgapi_system.c.obj)
                0x00025134                bgapi_system_listener
                0x00025164                lib_system_handler_init
                0x00025178                gecko_cmd_system_get_bt_address
                0x000251b0                gecko_cmd_system_set_bt_address
                0x000251e4                gecko_cmd_system_set_device_name
                0x00025220                gecko_cmd_system_get_random_data
                0x00025268                gecko_cmd_system_halt
                0x0002529c                gecko_cmd_system_set_tx_power
                0x000252cc                gecko_cmd_system_hello
                0x000252f4                gecko_cmd_system_reset
                0x000252fa                gecko_send_system_awake
                0x0002530c                gecko_cmd_system_linklayer_configure
 .text          0x0002533c       0x40 C:\Users\Satyanarayana\SimplicityStudio\v4_workspace\soc-smartPhone_NoBuff\protocol\bluetooth_2.6\lib\EFR32BG13P\GCC\bgapi.a(bgapi_endpoint.c.obj)
                0x0002533c                lib_endpoint_handler_init
                0x0002533e                gecko_cmd_endpoint_close
 .text          0x0002537c      0x13c C:\Users\Satyanarayana\SimplicityStudio\v4_workspace\soc-smartPhone_NoBuff\protocol\bluetooth_2.6\lib\EFR32BG13P\GCC\bgapi.a(bgapi_le_connection.c.obj)
                0x0002537c                lib_le_connection_handler_init
                0x0002537e                gecko_cmd_le_connection_set_parameters
                0x000253c8                gecko_cmd_le_connection_get_rssi
                0x000253f4                gecko_cmd_le_connection_disable_slave_latency
                0x00025438                gecko_cmd_le_connection_set_phy
                0x00025474                bgapi_close_le_connection
                0x0002548a                gecko_cmd_le_connection_close
 .text          0x000254b8      0xda8 C:\Users\Satyanarayana\SimplicityStudio\v4_workspace\soc-smartPhone_NoBuff\protocol\bluetooth_2.6\lib\EFR32BG13P\GCC\bgapi.a(gatt_client.c.obj)
                0x00025714                gatt_discover_primary_services
                0x00025752                gatt_discover_primary_services_by_uuid
                0x000257a6                gatt_find_included_services
                0x000257f8                gatt_find_included_services_handler
                0x000258a8                gatt_discover_characteristics
                0x000258ca                gatt_discover_characteristics_by_uuid
                0x00025908                gatt_discover_descriptors
                0x00025944                gatt_read_characteristic_value
                0x0002597c                gatt_read_characteristic_value_by_uuid
                0x000259b6                gatt_read_multiple_characteristic_values
                0x000259da                gatt_write_characteristic_value
                0x00025a00                gatt_write_characteristic_value_without_response
                0x00025a1a                gatt_prepare_characteristic_value_write
                0x00025a8c                gatt_execute_characteristic_value_write
                0x00025aae                gatt_set_characteristic_notification
                0x00025aee                gatt_read_descriptor_value
                0x00025b16                gatt_write_descriptor_value
                0x00025b3c                gatt_handle_exchange_mtu_rsp
                0x00025b58                gatt_handle_find_information_response
                0x00025caa                gatt_handle_find_by_type_value_response
                0x00025d4a                gatt_handle_read_response
                0x00025ea2                gatt_handle_read_blob_response
                0x00025ed8                gatt_handle_read_multiple_response
                0x00025f14                gatt_handle_read_by_type_response
                0x0002605c                gatt_handle_read_by_group_type_response
                0x0002610a                gatt_handle_write_response
                0x0002611e                gatt_handle_prepare_write_response
                0x000261d4                gatt_handle_execute_write_response
                0x00026210                gatt_client_handle_value_notification
                0x00026222                gatt_client_handle_value_indication
                0x00026236                gatt_send_characteristic_confirmation
                0x00026254                gatt_client_init
 .text          0x00026260      0x250 C:\Users\Satyanarayana\SimplicityStudio\v4_workspace\soc-smartPhone_NoBuff\protocol\bluetooth_2.6\lib\EFR32BG13P\GCC\bgapi.a(ubt_gatt_client.c.obj)
                0x00026260                ubt_gatt_discover_primary_services
                0x00026276                ubt_gatt_discover_primary_services_by_uuid
                0x000262a2                ubt_gatt_find_included_services
                0x000262bc                ubt_gatt_discover_characteristics
                0x000262d6                ubt_gatt_discover_characteristics_by_uuid
                0x00026306                ubt_gatt_discover_descriptors
                0x00026320                ubt_gatt_read_characteristic_value
                0x00026342                ubt_gatt_read_characteristic_value_by_uuid
                0x00026372                ubt_gatt_read_multiple_characteristic_values
                0x00026390                ubt_gatt_write_characteristic_value
                0x000263b2                ubt_gatt_write_characteristic_value_without_response
                0x000263ec                ubt_gatt_prepare_characteristic_value_write
                0x00026426                ubt_gatt_execute_characteristic_value_write
                0x00026440                ubt_gatt_send_characteristic_confirmation
                0x00026456                ubt_gatt_read_descriptor_value
                0x00026470                ubt_gatt_write_descriptor_value
                0x00026492                ubt_gatt_set_characteristic_notification
 .text          0x000264b0      0x514 C:\Users\Satyanarayana\SimplicityStudio\v4_workspace\soc-smartPhone_NoBuff\protocol\bluetooth_2.6\lib\EFR32BG13P\GCC\bgapi.a(att_client.c.obj)
                0x000264b0                att_send_find_information_request
                0x000264d6                att_send_find_by_type_value_request
                0x00026508                att_send_read_by_type_request
                0x00026534                att_send_read_request
                0x00026554                att_send_read_blob_request
                0x0002657a                att_send_read_multiple_request
                0x000265a6                att_send_read_by_group_type_request
                0x000265d2                att_send_write_request
                0x000265fe                att_send_write_command
                0x0002662a                att_send_signed_write_command
                0x00026664                att_send_prepare_write_request
                0x000266d8                att_send_execute_write_request
                0x000266f6                att_send_handle_value_confirmation
                0x0002670e                validate_gatt_client_pdu_len
                0x000267bc                att_gatt_client_handler
 .text          0x000269c4      0x424 c:/siliconlabs/simplicitystudio/v4/developer/toolchains/gnu_arm/4.9_2015q3/bin/../lib/gcc/arm-none-eabi/4.9.3/armv7e-m/fpu\libgcc.a(_arm_muldivdf3.o)
                0x000269c4                __aeabi_dmul
                0x000269c4                __muldf3
                0x00026c18                __divdf3
                0x00026c18                __aeabi_ddiv
 .text          0x00026de8       0x50 c:/siliconlabs/simplicitystudio/v4/developer/toolchains/gnu_arm/4.9_2015q3/bin/../lib/gcc/arm-none-eabi/4.9.3/armv7e-m/fpu\libgcc.a(_arm_fixdfsi.o)
                0x00026de8                __aeabi_d2iz
                0x00026de8                __fixdfsi
 .text          0x00026e38       0x30 c:/siliconlabs/simplicitystudio/v4/developer/toolchains/gnu_arm/4.9_2015q3/bin/../lib/gcc/arm-none-eabi/4.9.3/armv7e-m/fpu\libgcc.a(_aeabi_uldivmod.o)
                0x00026e38                __aeabi_uldivmod
 .text          0x00026e68       0x60 c:/siliconlabs/simplicitystudio/v4/developer/toolchains/gnu_arm/4.9_2015q3/bin/../lib/gcc/arm-none-eabi/4.9.3/armv7e-m/fpu\libgcc.a(bpabi.o)
                0x00026e68                __gnu_ldivmod_helper
                0x00026e98                __gnu_uldivmod_helper
 .text          0x00026ec8        0x4 c:/siliconlabs/simplicitystudio/v4/developer/toolchains/gnu_arm/4.9_2015q3/bin/../lib/gcc/arm-none-eabi/4.9.3/armv7e-m/fpu\libgcc.a(_dvmd_tls.o)
                0x00026ec8                __aeabi_idiv0
                0x00026ec8                __aeabi_ldiv0
 .text          0x00026ecc      0x29c c:/siliconlabs/simplicitystudio/v4/developer/toolchains/gnu_arm/4.9_2015q3/bin/../lib/gcc/arm-none-eabi/4.9.3/armv7e-m/fpu\libgcc.a(_divdi3.o)
                0x00026ecc                __divdi3
 .text          0x00027168      0x26c c:/siliconlabs/simplicitystudio/v4/developer/toolchains/gnu_arm/4.9_2015q3/bin/../lib/gcc/arm-none-eabi/4.9.3/armv7e-m/fpu\libgcc.a(_udivdi3.o)
                0x00027168                __udivdi3
 .text.exit     0x000273d4       0x20 c:/siliconlabs/simplicitystudio/v4/developer/toolchains/gnu_arm/4.9_2015q3/bin/../lib/gcc/arm-none-eabi/4.9.3/../../../../arm-none-eabi/lib/armv7e-m/fpu\libc.a(lib_a-exit.o)
                0x000273d4                exit
 .text.__libc_init_array
                0x000273f4       0x50 c:/siliconlabs/simplicitystudio/v4/developer/toolchains/gnu_arm/4.9_2015q3/bin/../lib/gcc/arm-none-eabi/4.9.3/../../../../arm-none-eabi/lib/armv7e-m/fpu\libc.a(lib_a-init.o)
                0x000273f4                __libc_init_array
 .text          0x00027444      0x134 c:/siliconlabs/simplicitystudio/v4/developer/toolchains/gnu_arm/4.9_2015q3/bin/../lib/gcc/arm-none-eabi/4.9.3/../../../../arm-none-eabi/lib/armv7e-m/fpu\libc.a(lib_a-memcpy.o)
                0x00027444                memcpy
 .text.memset   0x00027578       0x9c c:/siliconlabs/simplicitystudio/v4/developer/toolchains/gnu_arm/4.9_2015q3/bin/../lib/gcc/arm-none-eabi/4.9.3/../../../../arm-none-eabi/lib/armv7e-m/fpu\libc.a(lib_a-memset.o)
                0x00027578                memset
 .text.snprintf
                0x00027614       0x9c c:/siliconlabs/simplicitystudio/v4/developer/toolchains/gnu_arm/4.9_2015q3/bin/../lib/gcc/arm-none-eabi/4.9.3/../../../../arm-none-eabi/lib/armv7e-m/fpu\libc.a(lib_a-snprintf.o)
                0x00027614                snprintf
 .text.strlen   0x000276b0       0x5c c:/siliconlabs/simplicitystudio/v4/developer/toolchains/gnu_arm/4.9_2015q3/bin/../lib/gcc/arm-none-eabi/4.9.3/../../../../arm-none-eabi/lib/armv7e-m/fpu\libc.a(lib_a-strlen.o)
                0x000276b0                strlen
 *fill*         0x0002770c        0x4 
 .text._svfprintf_r
                0x00027710     0x14cc c:/siliconlabs/simplicitystudio/v4/developer/toolchains/gnu_arm/4.9_2015q3/bin/../lib/gcc/arm-none-eabi/4.9.3/../../../../arm-none-eabi/lib/armv7e-m/fpu\libc.a(lib_a-svfprintf.o)
                0x00027710                _svfprintf_r
 .text.startup.register_fini
                0x00028bdc       0x14 c:/siliconlabs/simplicitystudio/v4/developer/toolchains/gnu_arm/4.9_2015q3/bin/../lib/gcc/arm-none-eabi/4.9.3/../../../../arm-none-eabi/lib/armv7e-m/fpu\libc.a(lib_a-__call_atexit.o)
 .text.__call_exitprocs
                0x00028bf0       0xd4 c:/siliconlabs/simplicitystudio/v4/developer/toolchains/gnu_arm/4.9_2015q3/bin/../lib/gcc/arm-none-eabi/4.9.3/../../../../arm-none-eabi/lib/armv7e-m/fpu\libc.a(lib_a-__call_atexit.o)
                0x00028bf0                __call_exitprocs
 .text.atexit   0x00028cc4        0xc c:/siliconlabs/simplicitystudio/v4/developer/toolchains/gnu_arm/4.9_2015q3/bin/../lib/gcc/arm-none-eabi/4.9.3/../../../../arm-none-eabi/lib/armv7e-m/fpu\libc.a(lib_a-atexit.o)
                0x00028cc4                atexit
 .text.quorem   0x00028cd0      0x12c c:/siliconlabs/simplicitystudio/v4/developer/toolchains/gnu_arm/4.9_2015q3/bin/../lib/gcc/arm-none-eabi/4.9.3/../../../../arm-none-eabi/lib/armv7e-m/fpu\libc.a(lib_a-dtoa.o)
 *fill*         0x00028dfc        0x4 
 .text._dtoa_r  0x00028e00      0xea4 c:/siliconlabs/simplicitystudio/v4/developer/toolchains/gnu_arm/4.9_2015q3/bin/../lib/gcc/arm-none-eabi/4.9.3/../../../../arm-none-eabi/lib/armv7e-m/fpu\libc.a(lib_a-dtoa.o)
                0x00028e00                _dtoa_r
 .text.__libc_fini_array
                0x00029ca4       0x2c c:/siliconlabs/simplicitystudio/v4/developer/toolchains/gnu_arm/4.9_2015q3/bin/../lib/gcc/arm-none-eabi/4.9.3/../../../../arm-none-eabi/lib/armv7e-m/fpu\libc.a(lib_a-fini.o)
                0x00029ca4                __libc_fini_array
 .text._localeconv_r
                0x00029cd0        0x8 c:/siliconlabs/simplicitystudio/v4/developer/toolchains/gnu_arm/4.9_2015q3/bin/../lib/gcc/arm-none-eabi/4.9.3/../../../../arm-none-eabi/lib/armv7e-m/fpu\libc.a(lib_a-locale.o)
                0x00029cd0                _localeconv_r
 .text._malloc_r
                0x00029cd8      0x524 c:/siliconlabs/simplicitystudio/v4/developer/toolchains/gnu_arm/4.9_2015q3/bin/../lib/gcc/arm-none-eabi/4.9.3/../../../../arm-none-eabi/lib/armv7e-m/fpu\libc.a(lib_a-mallocr.o)
                0x00029cd8                _malloc_r
 .text.memchr   0x0002a1fc       0x94 c:/siliconlabs/simplicitystudio/v4/developer/toolchains/gnu_arm/4.9_2015q3/bin/../lib/gcc/arm-none-eabi/4.9.3/../../../../arm-none-eabi/lib/armv7e-m/fpu\libc.a(lib_a-memchr.o)
                0x0002a1fc                memchr
 .text.__malloc_lock
                0x0002a290        0x4 c:/siliconlabs/simplicitystudio/v4/developer/toolchains/gnu_arm/4.9_2015q3/bin/../lib/gcc/arm-none-eabi/4.9.3/../../../../arm-none-eabi/lib/armv7e-m/fpu\libc.a(lib_a-mlock.o)
                0x0002a290                __malloc_lock
 .text.__malloc_unlock
                0x0002a294        0x4 c:/siliconlabs/simplicitystudio/v4/developer/toolchains/gnu_arm/4.9_2015q3/bin/../lib/gcc/arm-none-eabi/4.9.3/../../../../arm-none-eabi/lib/armv7e-m/fpu\libc.a(lib_a-mlock.o)
                0x0002a294                __malloc_unlock
 .text._Balloc  0x0002a298       0x4c c:/siliconlabs/simplicitystudio/v4/developer/toolchains/gnu_arm/4.9_2015q3/bin/../lib/gcc/arm-none-eabi/4.9.3/../../../../arm-none-eabi/lib/armv7e-m/fpu\libc.a(lib_a-mprec.o)
                0x0002a298                _Balloc
 .text._Bfree   0x0002a2e4       0x14 c:/siliconlabs/simplicitystudio/v4/developer/toolchains/gnu_arm/4.9_2015q3/bin/../lib/gcc/arm-none-eabi/4.9.3/../../../../arm-none-eabi/lib/armv7e-m/fpu\libc.a(lib_a-mprec.o)
                0x0002a2e4                _Bfree
 .text.__multadd
                0x0002a2f8       0x84 c:/siliconlabs/simplicitystudio/v4/developer/toolchains/gnu_arm/4.9_2015q3/bin/../lib/gcc/arm-none-eabi/4.9.3/../../../../arm-none-eabi/lib/armv7e-m/fpu\libc.a(lib_a-mprec.o)
                0x0002a2f8                __multadd
 .text.__hi0bits
                0x0002a37c       0x40 c:/siliconlabs/simplicitystudio/v4/developer/toolchains/gnu_arm/4.9_2015q3/bin/../lib/gcc/arm-none-eabi/4.9.3/../../../../arm-none-eabi/lib/armv7e-m/fpu\libc.a(lib_a-mprec.o)
                0x0002a37c                __hi0bits
 .text.__lo0bits
                0x0002a3bc       0x5c c:/siliconlabs/simplicitystudio/v4/developer/toolchains/gnu_arm/4.9_2015q3/bin/../lib/gcc/arm-none-eabi/4.9.3/../../../../arm-none-eabi/lib/armv7e-m/fpu\libc.a(lib_a-mprec.o)
                0x0002a3bc                __lo0bits
 .text.__i2b    0x0002a418       0x14 c:/siliconlabs/simplicitystudio/v4/developer/toolchains/gnu_arm/4.9_2015q3/bin/../lib/gcc/arm-none-eabi/4.9.3/../../../../arm-none-eabi/lib/armv7e-m/fpu\libc.a(lib_a-mprec.o)
                0x0002a418                __i2b
 .text.__multiply
                0x0002a42c      0x134 c:/siliconlabs/simplicitystudio/v4/developer/toolchains/gnu_arm/4.9_2015q3/bin/../lib/gcc/arm-none-eabi/4.9.3/../../../../arm-none-eabi/lib/armv7e-m/fpu\libc.a(lib_a-mprec.o)
                0x0002a42c                __multiply
 .text.__pow5mult
                0x0002a560       0xa0 c:/siliconlabs/simplicitystudio/v4/developer/toolchains/gnu_arm/4.9_2015q3/bin/../lib/gcc/arm-none-eabi/4.9.3/../../../../arm-none-eabi/lib/armv7e-m/fpu\libc.a(lib_a-mprec.o)
                0x0002a560                __pow5mult
 .text.__lshift
                0x0002a600       0xac c:/siliconlabs/simplicitystudio/v4/developer/toolchains/gnu_arm/4.9_2015q3/bin/../lib/gcc/arm-none-eabi/4.9.3/../../../../arm-none-eabi/lib/armv7e-m/fpu\libc.a(lib_a-mprec.o)
                0x0002a600                __lshift
 .text.__mcmp   0x0002a6ac       0x48 c:/siliconlabs/simplicitystudio/v4/developer/toolchains/gnu_arm/4.9_2015q3/bin/../lib/gcc/arm-none-eabi/4.9.3/../../../../arm-none-eabi/lib/armv7e-m/fpu\libc.a(lib_a-mprec.o)
                0x0002a6ac                __mcmp
 .text.__mdiff  0x0002a6f4       0xd4 c:/siliconlabs/simplicitystudio/v4/developer/toolchains/gnu_arm/4.9_2015q3/bin/../lib/gcc/arm-none-eabi/4.9.3/../../../../arm-none-eabi/lib/armv7e-m/fpu\libc.a(lib_a-mprec.o)
                0x0002a6f4                __mdiff
 .text.__d2b    0x0002a7c8       0xbc c:/siliconlabs/simplicitystudio/v4/developer/toolchains/gnu_arm/4.9_2015q3/bin/../lib/gcc/arm-none-eabi/4.9.3/../../../../arm-none-eabi/lib/armv7e-m/fpu\libc.a(lib_a-mprec.o)
                0x0002a7c8                __d2b
 .text.__fpclassifyd
                0x0002a884       0x5c c:/siliconlabs/simplicitystudio/v4/developer/toolchains/gnu_arm/4.9_2015q3/bin/../lib/gcc/arm-none-eabi/4.9.3/../../../../arm-none-eabi/lib/armv7e-m/fpu\libc.a(lib_a-s_fpclassify.o)
                0x0002a884                __fpclassifyd
 .text._sbrk_r  0x0002a8e0       0x24 c:/siliconlabs/simplicitystudio/v4/developer/toolchains/gnu_arm/4.9_2015q3/bin/../lib/gcc/arm-none-eabi/4.9.3/../../../../arm-none-eabi/lib/armv7e-m/fpu\libc.a(lib_a-sbrkr.o)
                0x0002a8e0                _sbrk_r
 .text.__ssprint_r
                0x0002a904      0x104 c:/siliconlabs/simplicitystudio/v4/developer/toolchains/gnu_arm/4.9_2015q3/bin/../lib/gcc/arm-none-eabi/4.9.3/../../../../arm-none-eabi/lib/armv7e-m/fpu\libc.a(lib_a-svfiprintf.o)
                0x0002a904                __ssprint_r
 .text.__register_exitproc
                0x0002aa08       0xa4 c:/siliconlabs/simplicitystudio/v4/developer/toolchains/gnu_arm/4.9_2015q3/bin/../lib/gcc/arm-none-eabi/4.9.3/../../../../arm-none-eabi/lib/armv7e-m/fpu\libc.a(lib_a-__atexit.o)
                0x0002aa08                __register_exitproc
 .text._calloc_r
                0x0002aaac       0x60 c:/siliconlabs/simplicitystudio/v4/developer/toolchains/gnu_arm/4.9_2015q3/bin/../lib/gcc/arm-none-eabi/4.9.3/../../../../arm-none-eabi/lib/armv7e-m/fpu\libc.a(lib_a-callocr.o)
                0x0002aaac                _calloc_r
 .text._malloc_trim_r
                0x0002ab0c       0x9c c:/siliconlabs/simplicitystudio/v4/developer/toolchains/gnu_arm/4.9_2015q3/bin/../lib/gcc/arm-none-eabi/4.9.3/../../../../arm-none-eabi/lib/armv7e-m/fpu\libc.a(lib_a-freer.o)
                0x0002ab0c                _malloc_trim_r
 .text._free_r  0x0002aba8      0x1b0 c:/siliconlabs/simplicitystudio/v4/developer/toolchains/gnu_arm/4.9_2015q3/bin/../lib/gcc/arm-none-eabi/4.9.3/../../../../arm-none-eabi/lib/armv7e-m/fpu\libc.a(lib_a-freer.o)
                0x0002aba8                _free_r
 .text.memmove  0x0002ad58       0xc8 c:/siliconlabs/simplicitystudio/v4/developer/toolchains/gnu_arm/4.9_2015q3/bin/../lib/gcc/arm-none-eabi/4.9.3/../../../../arm-none-eabi/lib/armv7e-m/fpu\libc.a(lib_a-memmove.o)
                0x0002ad58                memmove
 .text._realloc_r
                0x0002ae20      0x3ec c:/siliconlabs/simplicitystudio/v4/developer/toolchains/gnu_arm/4.9_2015q3/bin/../lib/gcc/arm-none-eabi/4.9.3/../../../../arm-none-eabi/lib/armv7e-m/fpu\libc.a(lib_a-reallocr.o)
                0x0002ae20                _realloc_r
 .text._sbrk    0x0002b20c       0x1c c:/siliconlabs/simplicitystudio/v4/developer/toolchains/gnu_arm/4.9_2015q3/bin/../lib/gcc/arm-none-eabi/4.9.3/../../../../arm-none-eabi/lib/armv7e-m/fpu\libnosys.a(sbrk.o)
                0x0002b20c                _sbrk
 .text._exit    0x0002b228        0x4 c:/siliconlabs/simplicitystudio/v4/developer/toolchains/gnu_arm/4.9_2015q3/bin/../lib/gcc/arm-none-eabi/4.9.3/../../../../arm-none-eabi/lib/armv7e-m/fpu\libnosys.a(_exit.o)
                0x0002b228                _exit
 .text          0x0002b22c      0x370 c:/siliconlabs/simplicitystudio/v4/developer/toolchains/gnu_arm/4.9_2015q3/bin/../lib/gcc/arm-none-eabi/4.9.3/armv7e-m/fpu\libgcc.a(_arm_addsubdf3.o)
                0x0002b22c                __aeabi_drsub
                0x0002b234                __aeabi_dsub
                0x0002b234                __subdf3
                0x0002b238                __aeabi_dadd
                0x0002b238                __adddf3
                0x0002b4b0                __floatunsidf
                0x0002b4b0                __aeabi_ui2d
                0x0002b4d0                __floatsidf
                0x0002b4d0                __aeabi_i2d
                0x0002b4f4                __aeabi_f2d
                0x0002b4f4                __extendsfdf2
                0x0002b530                __floatundidf
                0x0002b530                __aeabi_ul2d
                0x0002b540                __floatdidf
                0x0002b540                __aeabi_l2d
 .text          0x0002b59c      0x110 c:/siliconlabs/simplicitystudio/v4/developer/toolchains/gnu_arm/4.9_2015q3/bin/../lib/gcc/arm-none-eabi/4.9.3/armv7e-m/fpu\libgcc.a(_arm_cmpdf2.o)
                0x0002b59c                __gtdf2
                0x0002b59c                __gedf2
                0x0002b5a4                __ltdf2
                0x0002b5a4                __ledf2
                0x0002b5ac                __nedf2
                0x0002b5ac                __eqdf2
                0x0002b5ac                __cmpdf2
                0x0002b628                __aeabi_cdrcmple
                0x0002b638                __aeabi_cdcmpeq
                0x0002b638                __aeabi_cdcmple
                0x0002b648                __aeabi_dcmpeq
                0x0002b65c                __aeabi_dcmplt
                0x0002b670                __aeabi_dcmple
                0x0002b684                __aeabi_dcmpge
                0x0002b698                __aeabi_dcmpgt
 *(.init)
 .init          0x0002b6ac        0x4 c:/siliconlabs/simplicitystudio/v4/developer/toolchains/gnu_arm/4.9_2015q3/bin/../lib/gcc/arm-none-eabi/4.9.3/armv7e-m/fpu/crti.o
                0x0002b6ac                _init
 .init          0x0002b6b0        0x8 c:/siliconlabs/simplicitystudio/v4/developer/toolchains/gnu_arm/4.9_2015q3/bin/../lib/gcc/arm-none-eabi/4.9.3/armv7e-m/fpu/crtn.o
 *(.fini)
 .fini          0x0002b6b8        0x4 c:/siliconlabs/simplicitystudio/v4/developer/toolchains/gnu_arm/4.9_2015q3/bin/../lib/gcc/arm-none-eabi/4.9.3/armv7e-m/fpu/crti.o
                0x0002b6b8                _fini
 .fini          0x0002b6bc        0x8 c:/siliconlabs/simplicitystudio/v4/developer/toolchains/gnu_arm/4.9_2015q3/bin/../lib/gcc/arm-none-eabi/4.9.3/armv7e-m/fpu/crtn.o
 *crtbegin.o(.ctors)
 *crtbegin?.o(.ctors)
 *(EXCLUDE_FILE(*crtend.o *crtend?.o) .ctors)
 *(SORT(.ctors.*))
 *(.ctors)
 *crtbegin.o(.dtors)
 *crtbegin?.o(.dtors)
 *(EXCLUDE_FILE(*crtend.o *crtend?.o) .dtors)
 *(SORT(.dtors.*))
 *(.dtors)
 *(.rodata*)
 .rodata        0x0002b6c4       0x1f ./advertisement.o
 *fill*         0x0002b6e3        0x1 
 .rodata        0x0002b6e4        0x7 ./app.o
 *fill*         0x0002b6eb        0x1 
 .rodata        0x0002b6ec       0x20 ./app_hw.o
 .rodata        0x0002b70c       0x17 ./beacon.o
 *fill*         0x0002b723        0x1 
 .rodata        0x0002b724       0x26 ./htm.o
 *fill*         0x0002b74a        0x2 
 .rodata        0x0002b74c       0x45 ./ia.o
 *fill*         0x0002b791        0x3 
 .rodata        0x0002b794        0x4 ./main.o
 .rodata.config
                0x0002b798       0x38 ./main.o
 .rodata.flashWsTable
                0x0002b7d0       0x28 ./emlib/em_cmu.o
 .rodata.ledArray
                0x0002b7f8       0x10 ./hardware/kit/common/bsp/bsp_stk_leds.o
 .rodata        0x0002b808       0x24 ./hardware/kit/common/drivers/mx25flash_spi.o
 .rodata        0x0002b82c       0x50 ./src/InitDevice.o
 .rodata        0x0002b87c       0x28 C:\Users\Satyanarayana\SimplicityStudio\v4_workspace\soc-smartPhone_NoBuff\protocol\bluetooth_2.6\lib\EFR32BG13P\GCC\bgapi.a(gecko_bgapi_hardware.c.obj)
 .rodata        0x0002b8a4       0x30 C:\Users\Satyanarayana\SimplicityStudio\v4_workspace\soc-smartPhone_NoBuff\protocol\bluetooth_2.6\lib\EFR32BG13P\GCC\bgapi.a(gecko_bgapi_test.c.obj)
 .rodata        0x0002b8d4       0x28 C:\Users\Satyanarayana\SimplicityStudio\v4_workspace\soc-smartPhone_NoBuff\protocol\bluetooth_2.6\lib\EFR32BG13P\GCC\bgapi.a(gecko_bgapi_dfu.c.obj)
 .rodata        0x0002b8fc       0x78 C:\Users\Satyanarayana\SimplicityStudio\v4_workspace\soc-smartPhone_NoBuff\protocol\bluetooth_2.6\lib\EFR32BG13P\GCC\bgapi.a(gecko_bgapi_gap.c.obj)
 .rodata        0x0002b974       0xa8 C:\Users\Satyanarayana\SimplicityStudio\v4_workspace\soc-smartPhone_NoBuff\protocol\bluetooth_2.6\lib\EFR32BG13P\GCC\bgapi.a(gecko_bgapi_gatt.c.obj)
 .rodata        0x0002ba1c       0x50 C:\Users\Satyanarayana\SimplicityStudio\v4_workspace\soc-smartPhone_NoBuff\protocol\bluetooth_2.6\lib\EFR32BG13P\GCC\bgapi.a(gecko_bgapi_gatt_server.c.obj)
 .rodata        0x0002ba6c       0x30 C:\Users\Satyanarayana\SimplicityStudio\v4_workspace\soc-smartPhone_NoBuff\protocol\bluetooth_2.6\lib\EFR32BG13P\GCC\bgapi.a(gecko_bgapi_flash.c.obj)
 .rodata        0x0002ba9c       0x80 C:\Users\Satyanarayana\SimplicityStudio\v4_workspace\soc-smartPhone_NoBuff\protocol\bluetooth_2.6\lib\EFR32BG13P\GCC\bgapi.a(gecko_bgapi_sm.c.obj)
 .rodata        0x0002bb1c       0x50 C:\Users\Satyanarayana\SimplicityStudio\v4_workspace\soc-smartPhone_NoBuff\protocol\bluetooth_2.6\lib\EFR32BG13P\GCC\bgapi.a(gecko_bgapi_system.c.obj)
 .rodata        0x0002bb6c       0x10 C:\Users\Satyanarayana\SimplicityStudio\v4_workspace\soc-smartPhone_NoBuff\protocol\bluetooth_2.6\lib\EFR32BG13P\GCC\bgapi.a(gecko_bgapi_endpoint.c.obj)
 .rodata        0x0002bb7c       0x30 C:\Users\Satyanarayana\SimplicityStudio\v4_workspace\soc-smartPhone_NoBuff\protocol\bluetooth_2.6\lib\EFR32BG13P\GCC\bgapi.a(gecko_bgapi_le_connection.c.obj)
 .rodata        0x0002bbac       0x18 C:\Users\Satyanarayana\SimplicityStudio\v4_workspace\soc-smartPhone_NoBuff\protocol\bluetooth_2.6\lib\EFR32BG13P\GCC\bgapi.a(bgapi_sm.c.obj)
 .rodata        0x0002bbc4        0x4 C:\Users\Satyanarayana\SimplicityStudio\v4_workspace\soc-smartPhone_NoBuff\protocol\bluetooth_2.6\lib\EFR32BG13P\GCC\bgapi.a(gatt_client.c.obj)
 .rodata.str1.4
                0x0002bbc8        0x2 c:/siliconlabs/simplicitystudio/v4/developer/toolchains/gnu_arm/4.9_2015q3/bin/../lib/gcc/arm-none-eabi/4.9.3/../../../../arm-none-eabi/lib/armv7e-m/fpu\libc.a(lib_a-impure.o)
 *fill*         0x0002bbca        0x2 
 .rodata._global_impure_ptr
                0x0002bbcc        0x4 c:/siliconlabs/simplicitystudio/v4/developer/toolchains/gnu_arm/4.9_2015q3/bin/../lib/gcc/arm-none-eabi/4.9.3/../../../../arm-none-eabi/lib/armv7e-m/fpu\libc.a(lib_a-impure.o)
                0x0002bbcc                _global_impure_ptr
 .rodata.zeroes.6911
                0x0002bbd0       0x10 c:/siliconlabs/simplicitystudio/v4/developer/toolchains/gnu_arm/4.9_2015q3/bin/../lib/gcc/arm-none-eabi/4.9.3/../../../../arm-none-eabi/lib/armv7e-m/fpu\libc.a(lib_a-svfprintf.o)
 .rodata.blanks.6910
                0x0002bbe0       0x10 c:/siliconlabs/simplicitystudio/v4/developer/toolchains/gnu_arm/4.9_2015q3/bin/../lib/gcc/arm-none-eabi/4.9.3/../../../../arm-none-eabi/lib/armv7e-m/fpu\libc.a(lib_a-svfprintf.o)
 .rodata.str1.4
                0x0002bbf0       0x42 c:/siliconlabs/simplicitystudio/v4/developer/toolchains/gnu_arm/4.9_2015q3/bin/../lib/gcc/arm-none-eabi/4.9.3/../../../../arm-none-eabi/lib/armv7e-m/fpu\libc.a(lib_a-svfprintf.o)
 *fill*         0x0002bc32        0x2 
 .rodata.str1.4
                0x0002bc34       0x10 c:/siliconlabs/simplicitystudio/v4/developer/toolchains/gnu_arm/4.9_2015q3/bin/../lib/gcc/arm-none-eabi/4.9.3/../../../../arm-none-eabi/lib/armv7e-m/fpu\libc.a(lib_a-dtoa.o)
                                 0x12 (size before relaxing)
 .rodata.str1.4
                0x0002bc44        0xc c:/siliconlabs/simplicitystudio/v4/developer/toolchains/gnu_arm/4.9_2015q3/bin/../lib/gcc/arm-none-eabi/4.9.3/../../../../arm-none-eabi/lib/armv7e-m/fpu\libc.a(lib_a-locale.o)
                                 0x12 (size before relaxing)
 .rodata.__mprec_tens
                0x0002bc50       0xc8 c:/siliconlabs/simplicitystudio/v4/developer/toolchains/gnu_arm/4.9_2015q3/bin/../lib/gcc/arm-none-eabi/4.9.3/../../../../arm-none-eabi/lib/armv7e-m/fpu\libc.a(lib_a-mprec.o)
                0x0002bc50                __mprec_tens
 .rodata.p05.5302
                0x0002bd18        0xc c:/siliconlabs/simplicitystudio/v4/developer/toolchains/gnu_arm/4.9_2015q3/bin/../lib/gcc/arm-none-eabi/4.9.3/../../../../arm-none-eabi/lib/armv7e-m/fpu\libc.a(lib_a-mprec.o)
 *fill*         0x0002bd24        0x4 
 .rodata.__mprec_bigtens
                0x0002bd28       0x28 c:/siliconlabs/simplicitystudio/v4/developer/toolchains/gnu_arm/4.9_2015q3/bin/../lib/gcc/arm-none-eabi/4.9.3/../../../../arm-none-eabi/lib/armv7e-m/fpu\libc.a(lib_a-mprec.o)
                0x0002bd28                __mprec_bigtens
 *(.eh_frame*)
 .eh_frame      0x0002bd50        0x0 c:/siliconlabs/simplicitystudio/v4/developer/toolchains/gnu_arm/4.9_2015q3/bin/../lib/gcc/arm-none-eabi/4.9.3/armv7e-m/fpu/crtbegin.o
 .eh_frame      0x0002bd50        0x0 c:/siliconlabs/simplicitystudio/v4/developer/toolchains/gnu_arm/4.9_2015q3/bin/../lib/gcc/arm-none-eabi/4.9.3/../../../../arm-none-eabi/lib/armv7e-m/fpu\libc.a(lib_a-strcmp.o)
                                 0x70 (size before relaxing)
 .eh_frame      0x0002bd50        0x4 c:/siliconlabs/simplicitystudio/v4/developer/toolchains/gnu_arm/4.9_2015q3/bin/../lib/gcc/arm-none-eabi/4.9.3/armv7e-m/fpu/crtend.o
                0x0002bd54                . = ALIGN (0x4)

.glue_7         0x0002bd54        0x0
 .glue_7        0x00000000        0x0 linker stubs

.glue_7t        0x0002bd54        0x0
 .glue_7t       0x00000000        0x0 linker stubs

.vfp11_veneer   0x0002bd54        0x0
 .vfp11_veneer  0x00000000        0x0 linker stubs

.v4_bx          0x0002bd54        0x0
 .v4_bx         0x00000000        0x0 linker stubs

.iplt           0x0002bd54        0x0
 .iplt          0x00000000        0x0 c:/siliconlabs/simplicitystudio/v4/developer/toolchains/gnu_arm/4.9_2015q3/bin/../lib/gcc/arm-none-eabi/4.9.3/armv7e-m/fpu/crtbegin.o

.igot.plt       0x0002bd54        0x0
 .igot.plt      0x00000000        0x0 c:/siliconlabs/simplicitystudio/v4/developer/toolchains/gnu_arm/4.9_2015q3/bin/../lib/gcc/arm-none-eabi/4.9.3/armv7e-m/fpu/crtbegin.o

.text_app_ARM.extab
 *(.ARM.extab* .gnu.linkonce.armextab.*)
                0x0002bd54                __exidx_start = .

.text_app_ARM.exidx
                0x0002bd54        0x8
 *(.ARM.exidx* .gnu.linkonce.armexidx.*)
 .ARM.exidx     0x0002bd54        0x8 c:/siliconlabs/simplicitystudio/v4/developer/toolchains/gnu_arm/4.9_2015q3/bin/../lib/gcc/arm-none-eabi/4.9.3/../../../../arm-none-eabi/lib/armv7e-m/fpu/crt0.o
 .ARM.exidx     0x0002bd5c        0x0 c:/siliconlabs/simplicitystudio/v4/developer/toolchains/gnu_arm/4.9_2015q3/bin/../lib/gcc/arm-none-eabi/4.9.3/armv7e-m/fpu\libgcc.a(_divdi3.o)
                                  0x8 (size before relaxing)
 .ARM.exidx     0x0002bd5c        0x0 c:/siliconlabs/simplicitystudio/v4/developer/toolchains/gnu_arm/4.9_2015q3/bin/../lib/gcc/arm-none-eabi/4.9.3/armv7e-m/fpu\libgcc.a(_udivdi3.o)
                                  0x8 (size before relaxing)
                0x0002bd5c                __exidx_end = .
                0x0002bd5c                __etext = .

.rel.dyn        0x0002bd5c        0x0
 .rel.iplt      0x00000000        0x0 c:/siliconlabs/simplicitystudio/v4/developer/toolchains/gnu_arm/4.9_2015q3/bin/../lib/gcc/arm-none-eabi/4.9.3/armv7e-m/fpu/crtbegin.o

.text_app_data  0x20003000      0x92c load address 0x0002bd5c
                0x20003000                __data_start__ = .
 *(vtable)
 *(.data*)
 .data.advConnectableMode
                0x20003000        0x1 ./advertisement.o
 *fill*         0x20003001        0x3 
 .data.appUiLedSeqOffReq
                0x20003004        0x8 ./app_ui.o
 .data.appUiLedSeqLowAlert
                0x2000300c       0x20 ./app_ui.o
 .data.appUiLedSeqLowAlertReq
                0x2000302c        0x8 ./app_ui.o
 .data.appUiLedSeqHighAlert
                0x20003034        0x8 ./app_ui.o
 .data.appUiLedSeqHighAlertReq
                0x2000303c        0x8 ./app_ui.o
 .data.activeReq.9266
                0x20003044        0x4 ./app_ui.o
 .data.button0Released.9270
                0x20003048        0x1 ./app_ui.o
 .data.button1Released.9271
                0x20003049        0x1 ./app_ui.o
 *fill*         0x2000304a        0x2 
 .data.bcnBeaconAdvData
                0x2000304c       0x1e ./beacon.o
 *fill*         0x2000306a        0x2 
 .data.bg_gattdb_data_attribute_field_22_data
                0x2000306c        0x2 ./gatt_db.o
                0x2000306c                bg_gattdb_data_attribute_field_22_data
 *fill*         0x2000306e        0x2 
 .data.bg_gattdb_data_attribute_field_17_data
                0x20003070        0x1 ./gatt_db.o
                0x20003070                bg_gattdb_data_attribute_field_17_data
 *fill*         0x20003071        0x3 
 .data.bg_gattdb_data_attribute_field_6_data
                0x20003074        0x7 ./gatt_db.o
                0x20003074                bg_gattdb_data_attribute_field_6_data
 *fill*         0x2000307b        0x1 
 .data.htmTempMeas
                0x2000307c       0x18 ./htm.o
 .data.htmDateTime
                0x20003094        0x8 ./htm.o
 .data.htmClientConnection
                0x2000309c        0x1 ./htm.o
 *fill*         0x2000309d        0x3 
 .data.auxHfrcoFreq
                0x200030a0        0x4 ./emlib/em_cmu.o
 *fill*         0x200030a4        0x4 
 .data.impure_data
                0x200030a8      0x428 c:/siliconlabs/simplicitystudio/v4/developer/toolchains/gnu_arm/4.9_2015q3/bin/../lib/gcc/arm-none-eabi/4.9.3/../../../../arm-none-eabi/lib/armv7e-m/fpu\libc.a(lib_a-impure.o)
 .data._impure_ptr
                0x200034d0        0x4 c:/siliconlabs/simplicitystudio/v4/developer/toolchains/gnu_arm/4.9_2015q3/bin/../lib/gcc/arm-none-eabi/4.9.3/../../../../arm-none-eabi/lib/armv7e-m/fpu\libc.a(lib_a-impure.o)
                0x200034d0                _impure_ptr
 .data.lconv    0x200034d4       0x38 c:/siliconlabs/simplicitystudio/v4/developer/toolchains/gnu_arm/4.9_2015q3/bin/../lib/gcc/arm-none-eabi/4.9.3/../../../../arm-none-eabi/lib/armv7e-m/fpu\libc.a(lib_a-locale.o)
 .data.__malloc_av_
                0x2000350c      0x408 c:/siliconlabs/simplicitystudio/v4/developer/toolchains/gnu_arm/4.9_2015q3/bin/../lib/gcc/arm-none-eabi/4.9.3/../../../../arm-none-eabi/lib/armv7e-m/fpu\libc.a(lib_a-mallocr.o)
                0x2000350c                __malloc_av_
 .data.__malloc_trim_threshold
                0x20003914        0x4 c:/siliconlabs/simplicitystudio/v4/developer/toolchains/gnu_arm/4.9_2015q3/bin/../lib/gcc/arm-none-eabi/4.9.3/../../../../arm-none-eabi/lib/armv7e-m/fpu\libc.a(lib_a-mallocr.o)
                0x20003914                __malloc_trim_threshold
 .data.__malloc_sbrk_base
                0x20003918        0x4 c:/siliconlabs/simplicitystudio/v4/developer/toolchains/gnu_arm/4.9_2015q3/bin/../lib/gcc/arm-none-eabi/4.9.3/../../../../arm-none-eabi/lib/armv7e-m/fpu\libc.a(lib_a-mallocr.o)
                0x20003918                __malloc_sbrk_base
                0x2000391c                . = ALIGN (0x4)
 *(.ram)
                0x2000391c                . = ALIGN (0x4)
                0x2000391c                PROVIDE (__preinit_array_start, .)
 *(.preinit_array)
                0x2000391c                PROVIDE (__preinit_array_end, .)
                0x2000391c                . = ALIGN (0x4)
                0x2000391c                PROVIDE (__init_array_start, .)
 *(SORT(.init_array.*))
 .init_array.00000
                0x2000391c        0x4 c:/siliconlabs/simplicitystudio/v4/developer/toolchains/gnu_arm/4.9_2015q3/bin/../lib/gcc/arm-none-eabi/4.9.3/../../../../arm-none-eabi/lib/armv7e-m/fpu\libc.a(lib_a-__call_atexit.o)
 *(.init_array)
 .init_array    0x20003920        0x4 c:/siliconlabs/simplicitystudio/v4/developer/toolchains/gnu_arm/4.9_2015q3/bin/../lib/gcc/arm-none-eabi/4.9.3/armv7e-m/fpu/crtbegin.o
                0x20003924                PROVIDE (__init_array_end, .)
                0x20003924                . = ALIGN (0x4)
                0x20003924                PROVIDE (__fini_array_start, .)
 *(SORT(.fini_array.*))
 *(.fini_array)
 .fini_array    0x20003924        0x4 c:/siliconlabs/simplicitystudio/v4/developer/toolchains/gnu_arm/4.9_2015q3/bin/../lib/gcc/arm-none-eabi/4.9.3/armv7e-m/fpu/crtbegin.o
                0x20003928                PROVIDE (__fini_array_end, .)
 *(.jcr*)
 .jcr           0x20003928        0x0 c:/siliconlabs/simplicitystudio/v4/developer/toolchains/gnu_arm/4.9_2015q3/bin/../lib/gcc/arm-none-eabi/4.9.3/armv7e-m/fpu/crtbegin.o
 .jcr           0x20003928        0x4 c:/siliconlabs/simplicitystudio/v4/developer/toolchains/gnu_arm/4.9_2015q3/bin/../lib/gcc/arm-none-eabi/4.9.3/armv7e-m/fpu/crtend.o
                0x2000392c                . = ALIGN (0x4)
                0x2000392c                __data_end__ = .

.bss            0x2000392c     0x1ca0 load address 0x0002c688
                0x2000392c                . = ALIGN (0x4)
                0x2000392c                __bss_start__ = .
 *(.bss*)
 .bss           0x2000392c       0x1c c:/siliconlabs/simplicitystudio/v4/developer/toolchains/gnu_arm/4.9_2015q3/bin/../lib/gcc/arm-none-eabi/4.9.3/armv7e-m/fpu/crtbegin.o
 .bss.advIsConnected
                0x20003948        0x1 ./advertisement.o
 .bss.si7013_status
                0x20003949        0x1 ./app_hw.o
 *fill*         0x2000394a        0x2 
 .bss.appUiBtn  0x2000394c        0x4 ./app_ui.o
 .bss.appUiLedSeqOff
                0x20003950        0x2 ./app_ui.o
 *fill*         0x20003952        0x2 
 .bss.appUiLedSeqReq
                0x20003954        0x4 ./app_ui.o
 .bss.pos.9265  0x20003958        0x1 ./app_ui.o
 *fill*         0x20003959        0x1 
 .bss.button0Time.9272
                0x2000395a        0x2 ./app_ui.o
 .bss.button1Time.9273
                0x2000395c        0x2 ./app_ui.o
 *fill*         0x2000395e        0x2 
 .bss.bg_gattdb_data_attribute_field_25_data
                0x20003960        0x1 ./gatt_db.o
                0x20003960                bg_gattdb_data_attribute_field_25_data
 *fill*         0x20003961        0x3 
 .bss.bg_gattdb_data_attribute_field_19_data
                0x20003964        0xd ./gatt_db.o
                0x20003964                bg_gattdb_data_attribute_field_19_data
 *fill*         0x20003971        0x3 
 .bss.bg_gattdb_data_attribute_field_14_data
                0x20003974        0xd ./gatt_db.o
                0x20003974                bg_gattdb_data_attribute_field_14_data
 *fill*         0x20003981        0x3 
 .bss.bg_gattdb_data_attribute_field_2_data
                0x20003984        0x4 ./gatt_db.o
                0x20003984                bg_gattdb_data_attribute_field_2_data
 .bss.glibContext
                0x20003988       0x2c ./graphics.o
 .bss.graphLineNum
                0x200039b4        0x1 ./graphics.o
 *fill*         0x200039b5        0x3 
 .bss.deviceHeader
                0x200039b8        0x4 ./graphics.o
 .bss.boot_to_dfu.9425
                0x200039bc        0x1 ./main.o
 *fill*         0x200039bd        0x3 
 .bss.i2cTransfer
                0x200039c0       0x20 ./emlib/em_i2c.o
 .bss.chTable   0x200039e0       0xa0 ./platform/emdrv/dmadrv/src/dmadrv.o
 .bss.dmaXfer   0x20003a80      0x100 ./platform/emdrv/dmadrv/src/dmadrv.o
 .bss.moduleInitialized
                0x20003b80        0x1 ./platform/middleware/glib/dmd/display/dmd_display.o
 *fill*         0x20003b81        0x3 
 .bss.displayDevice
                0x20003b84       0x30 ./platform/middleware/glib/dmd/display/dmd_display.o
 .bss.pixelMatrixBuffer
                0x20003bb4        0x4 ./platform/middleware/glib/dmd/display/dmd_display.o
 .bss.dimensions
                0x20003bb8        0xc ./platform/middleware/glib/dmd/display/dmd_display.o
 .bss.switch_on
                0x20003bc4        0x4 ./src/gpio.o
                0x20003bc4                switch_on
 .bss.xtempValue
                0x20003bc8        0x2 ./src/gpio.o
                0x20003bc8                xtempValue
 .bss.ytempValue
                0x20003bca        0x2 ./src/gpio.o
                0x20003bca                ytempValue
 .bss.ztempValue
                0x20003bcc        0x2 ./src/gpio.o
                0x20003bcc                ztempValue
 .bss.bma280_temp
                0x20003bce        0x2 ./src/gpio.o
                0x20003bce                bma280_temp
 .bss.fifo_index
                0x20003bd0        0x1 ./src/gpio.o
 *fill*         0x20003bd1        0x3 
 .bss           0x20003bd4        0x4 C:\Users\Satyanarayana\SimplicityStudio\v4_workspace\soc-smartPhone_NoBuff\protocol\bluetooth_2.6\lib\EFR32BG13P\GCC\bgapi.a(bgapi_hardware.c.obj)
 .bss           0x20003bd8        0x5 C:\Users\Satyanarayana\SimplicityStudio\v4_workspace\soc-smartPhone_NoBuff\protocol\bluetooth_2.6\lib\EFR32BG13P\GCC\bgapi.a(bgapi_test_lib.c.obj)
 *fill*         0x20003bdd        0x1 
 .bss           0x20003bde        0x2 C:\Users\Satyanarayana\SimplicityStudio\v4_workspace\soc-smartPhone_NoBuff\protocol\bluetooth_2.6\lib\EFR32BG13P\GCC\bgapi.a(bgapi_gap.c.obj)
                0x20003bde                legacy_maxadv_events
 .bss           0x20003be0        0x4 C:\Users\Satyanarayana\SimplicityStudio\v4_workspace\soc-smartPhone_NoBuff\protocol\bluetooth_2.6\lib\EFR32BG13P\GCC\bgapi.a(bgapi_ps.c.obj)
 .bss           0x20003be4        0x4 C:\Users\Satyanarayana\SimplicityStudio\v4_workspace\soc-smartPhone_NoBuff\protocol\bluetooth_2.6\lib\EFR32BG13P\GCC\bgapi.a(bgapi_sm.c.obj)
 .bss           0x20003be8        0x4 C:\Users\Satyanarayana\SimplicityStudio\v4_workspace\soc-smartPhone_NoBuff\protocol\bluetooth_2.6\lib\EFR32BG13P\GCC\bgapi.a(bgapi_system.c.obj)
 .bss.__malloc_max_total_mem
                0x20003bec        0x4 c:/siliconlabs/simplicitystudio/v4/developer/toolchains/gnu_arm/4.9_2015q3/bin/../lib/gcc/arm-none-eabi/4.9.3/../../../../arm-none-eabi/lib/armv7e-m/fpu\libc.a(lib_a-mallocr.o)
                0x20003bec                __malloc_max_total_mem
 .bss.__malloc_max_sbrked_mem
                0x20003bf0        0x4 c:/siliconlabs/simplicitystudio/v4/developer/toolchains/gnu_arm/4.9_2015q3/bin/../lib/gcc/arm-none-eabi/4.9.3/../../../../arm-none-eabi/lib/armv7e-m/fpu\libc.a(lib_a-mallocr.o)
                0x20003bf0                __malloc_max_sbrked_mem
 .bss.__malloc_top_pad
                0x20003bf4        0x4 c:/siliconlabs/simplicitystudio/v4/developer/toolchains/gnu_arm/4.9_2015q3/bin/../lib/gcc/arm-none-eabi/4.9.3/../../../../arm-none-eabi/lib/armv7e-m/fpu\libc.a(lib_a-mallocr.o)
                0x20003bf4                __malloc_top_pad
 .bss.__malloc_current_mallinfo
                0x20003bf8       0x28 c:/siliconlabs/simplicitystudio/v4/developer/toolchains/gnu_arm/4.9_2015q3/bin/../lib/gcc/arm-none-eabi/4.9.3/../../../../arm-none-eabi/lib/armv7e-m/fpu\libc.a(lib_a-mallocr.o)
                0x20003bf8                __malloc_current_mallinfo
 .bss.heap_end.4079
                0x20003c20        0x4 c:/siliconlabs/simplicitystudio/v4/developer/toolchains/gnu_arm/4.9_2015q3/bin/../lib/gcc/arm-none-eabi/4.9.3/../../../../arm-none-eabi/lib/armv7e-m/fpu\libnosys.a(sbrk.o)
 *(COMMON)
 COMMON         0x20003c24     0x1988 ./main.o
                0x20003c24                bluetooth_stack_heap
 COMMON         0x200055ac       0x10 ./platform/middleware/glib/dmd/display/dmd_display.o
                0x200055ac                dirtyRows
 COMMON         0x200055bc        0x6 ./src/gpio.o
                0x200055bc                Ydata_FIFO
                0x200055be                Xdata_FIFO
                0x200055c0                Zdata_FIFO
 *fill*         0x200055c2        0x2 
 COMMON         0x200055c4        0x4 C:\Users\Satyanarayana\SimplicityStudio\v4_workspace\soc-smartPhone_NoBuff\protocol\bluetooth_2.6\lib\EFR32BG13P\GCC\bgapi.a(bgapi_test_lib.c.obj)
                0x200055c4                msg_sender
 COMMON         0x200055c8        0x4 c:/siliconlabs/simplicitystudio/v4/developer/toolchains/gnu_arm/4.9_2015q3/bin/../lib/gcc/arm-none-eabi/4.9.3/../../../../arm-none-eabi/lib/armv7e-m/fpu\libc.a(lib_a-reent.o)
                0x200055c8                errno
                0x200055cc                . = ALIGN (0x4)
                0x200055cc                __bss_end__ = .

.heap           0x200055d0      0xc00
                0x200055d0                __HeapBase = .
                0x200055d0                __end__ = .
                0x200055d0                end = __end__
                0x200055d0                _end = __end__
 *(.heap*)
 .heap          0x200055d0      0xc00 ./platform/Device/SiliconLabs/EFR32BG13P/Source/GCC/startup_efr32bg13p.o
                0x200061d0                __HeapLimit = .

.stack_dummy    0x200061d0      0x400
 *(.stack*)
 .stack         0x200061d0      0x400 ./platform/Device/SiliconLabs/EFR32BG13P/Source/GCC/startup_efr32bg13p.o
                0x2000fffc                __StackTop = (ORIGIN (RAM) + 0xcffc)
                0x2000fbfc                __StackLimit = (__StackTop - SIZEOF (.stack_dummy))
                0x2000fffc                PROVIDE (__stack, __StackTop)
                0x00000001                ASSERT ((__StackLimit >= __HeapLimit), region RAM overflowed with stack)
                0x00000001                ASSERT ((0x7f000 >= (__etext + SIZEOF (.text_app_data))), FLASH memory overflowed !)
OUTPUT(soc-smartPhone_NoBuff.axf elf32-littlearm)

.ARM.attributes
                0x00000000       0x30
 .ARM.attributes
                0x00000000       0x22 c:/siliconlabs/simplicitystudio/v4/developer/toolchains/gnu_arm/4.9_2015q3/bin/../lib/gcc/arm-none-eabi/4.9.3/armv7e-m/fpu/crti.o
 .ARM.attributes
                0x00000022       0x34 c:/siliconlabs/simplicitystudio/v4/developer/toolchains/gnu_arm/4.9_2015q3/bin/../lib/gcc/arm-none-eabi/4.9.3/armv7e-m/fpu/crtbegin.o
 .ARM.attributes
                0x00000056       0x20 c:/siliconlabs/simplicitystudio/v4/developer/toolchains/gnu_arm/4.9_2015q3/bin/../lib/gcc/arm-none-eabi/4.9.3/../../../../arm-none-eabi/lib/armv7e-m/fpu/crt0.o
 .ARM.attributes
                0x00000076       0x39 ./advertisement.o
 .ARM.attributes
                0x000000af       0x39 ./app.o
 .ARM.attributes
                0x000000e8       0x39 ./app_hw.o
 .ARM.attributes
                0x00000121       0x39 ./app_ui.o
 .ARM.attributes
                0x0000015a       0x39 ./application_properties.o
 .ARM.attributes
                0x00000193       0x39 ./beacon.o
 .ARM.attributes
                0x000001cc       0x39 ./gatt_db.o
 .ARM.attributes
                0x00000205       0x39 ./graphics.o
 .ARM.attributes
                0x0000023e       0x39 ./htm.o
 .ARM.attributes
                0x00000277       0x39 ./ia.o
 .ARM.attributes
                0x000002b0       0x39 ./main.o
 .ARM.attributes
                0x000002e9       0x39 ./emlib/em_cmu.o
 .ARM.attributes
                0x00000322       0x39 ./emlib/em_gpio.o
 .ARM.attributes
                0x0000035b       0x39 ./emlib/em_i2c.o
 .ARM.attributes
                0x00000394       0x39 ./emlib/em_letimer.o
 .ARM.attributes
                0x000003cd       0x39 ./emlib/em_rtcc.o
 .ARM.attributes
                0x00000406       0x39 ./emlib/em_usart.o
 .ARM.attributes
                0x0000043f       0x39 ./hardware/kit/common/bsp/bsp_stk_leds.o
 .ARM.attributes
                0x00000478       0x39 ./hardware/kit/common/drivers/i2cspm.o
 .ARM.attributes
                0x000004b1       0x39 ./hardware/kit/common/drivers/mx25flash_spi.o
 .ARM.attributes
                0x000004ea       0x39 ./hardware/kit/common/drivers/si7013.o
 .ARM.attributes
                0x00000523       0x39 ./platform/Device/SiliconLabs/EFR32BG13P/Source/GCC/startup_efr32bg13p.o
 .ARM.attributes
                0x0000055c       0x39 ./platform/emdrv/dmadrv/src/dmadrv.o
 .ARM.attributes
                0x00000595       0x39 ./platform/middleware/glib/dmd/display/dmd_display.o
 .ARM.attributes
                0x000005ce       0x39 ./platform/middleware/glib/glib/glib.o
 .ARM.attributes
                0x00000607       0x39 ./platform/middleware/glib/glib/glib_rectangle.o
 .ARM.attributes
                0x00000640       0x39 ./platform/middleware/glib/glib/glib_string.o
 .ARM.attributes
                0x00000679       0x39 ./src/InitDevice.o
 .ARM.attributes
                0x000006b2       0x39 ./src/bma280.o
 .ARM.attributes
                0x000006eb       0x39 ./src/cmu.o
 .ARM.attributes
                0x00000724       0x39 ./src/gpio.o
 .ARM.attributes
                0x0000075d       0x39 ./src/letimer0.o
 .ARM.attributes
                0x00000796       0x39 ./src/spi.o
 .ARM.attributes
                0x000007cf       0x39 C:\Users\Satyanarayana\SimplicityStudio\v4_workspace\soc-smartPhone_NoBuff\protocol\bluetooth_2.6\lib\EFR32BG13P\GCC\bgapi.a(gecko_bgapi_hardware.c.obj)
 .ARM.attributes
                0x00000808       0x39 C:\Users\Satyanarayana\SimplicityStudio\v4_workspace\soc-smartPhone_NoBuff\protocol\bluetooth_2.6\lib\EFR32BG13P\GCC\bgapi.a(gecko_bgapi_test.c.obj)
 .ARM.attributes
                0x00000841       0x39 C:\Users\Satyanarayana\SimplicityStudio\v4_workspace\soc-smartPhone_NoBuff\protocol\bluetooth_2.6\lib\EFR32BG13P\GCC\bgapi.a(gecko_bgapi_dfu.c.obj)
 .ARM.attributes
                0x0000087a       0x39 C:\Users\Satyanarayana\SimplicityStudio\v4_workspace\soc-smartPhone_NoBuff\protocol\bluetooth_2.6\lib\EFR32BG13P\GCC\bgapi.a(gecko_bgapi_gap.c.obj)
 .ARM.attributes
                0x000008b3       0x39 C:\Users\Satyanarayana\SimplicityStudio\v4_workspace\soc-smartPhone_NoBuff\protocol\bluetooth_2.6\lib\EFR32BG13P\GCC\bgapi.a(gecko_bgapi_gatt.c.obj)
 .ARM.attributes
                0x000008ec       0x39 C:\Users\Satyanarayana\SimplicityStudio\v4_workspace\soc-smartPhone_NoBuff\protocol\bluetooth_2.6\lib\EFR32BG13P\GCC\bgapi.a(gecko_bgapi_gatt_server.c.obj)
 .ARM.attributes
                0x00000925       0x39 C:\Users\Satyanarayana\SimplicityStudio\v4_workspace\soc-smartPhone_NoBuff\protocol\bluetooth_2.6\lib\EFR32BG13P\GCC\bgapi.a(gecko_bgapi_flash.c.obj)
 .ARM.attributes
                0x0000095e       0x39 C:\Users\Satyanarayana\SimplicityStudio\v4_workspace\soc-smartPhone_NoBuff\protocol\bluetooth_2.6\lib\EFR32BG13P\GCC\bgapi.a(gecko_bgapi_sm.c.obj)
 .ARM.attributes
                0x00000997       0x39 C:\Users\Satyanarayana\SimplicityStudio\v4_workspace\soc-smartPhone_NoBuff\protocol\bluetooth_2.6\lib\EFR32BG13P\GCC\bgapi.a(gecko_bgapi_system.c.obj)
 .ARM.attributes
                0x000009d0       0x39 C:\Users\Satyanarayana\SimplicityStudio\v4_workspace\soc-smartPhone_NoBuff\protocol\bluetooth_2.6\lib\EFR32BG13P\GCC\bgapi.a(gecko_bgapi_endpoint.c.obj)
 .ARM.attributes
                0x00000a09       0x39 C:\Users\Satyanarayana\SimplicityStudio\v4_workspace\soc-smartPhone_NoBuff\protocol\bluetooth_2.6\lib\EFR32BG13P\GCC\bgapi.a(gecko_bgapi_le_connection.c.obj)
 .ARM.attributes
                0x00000a42       0x39 C:\Users\Satyanarayana\SimplicityStudio\v4_workspace\soc-smartPhone_NoBuff\protocol\bluetooth_2.6\lib\EFR32BG13P\GCC\bgapi.a(bgapi_hardware.c.obj)
 .ARM.attributes
                0x00000a7b       0x39 C:\Users\Satyanarayana\SimplicityStudio\v4_workspace\soc-smartPhone_NoBuff\protocol\bluetooth_2.6\lib\EFR32BG13P\GCC\bgapi.a(bgapi_test_lib.c.obj)
 .ARM.attributes
                0x00000ab4       0x39 C:\Users\Satyanarayana\SimplicityStudio\v4_workspace\soc-smartPhone_NoBuff\protocol\bluetooth_2.6\lib\EFR32BG13P\GCC\bgapi.a(bgapi_dfu.c.obj)
 .ARM.attributes
                0x00000aed       0x39 C:\Users\Satyanarayana\SimplicityStudio\v4_workspace\soc-smartPhone_NoBuff\protocol\bluetooth_2.6\lib\EFR32BG13P\GCC\bgapi.a(bgapi_gap.c.obj)
 .ARM.attributes
                0x00000b26       0x39 C:\Users\Satyanarayana\SimplicityStudio\v4_workspace\soc-smartPhone_NoBuff\protocol\bluetooth_2.6\lib\EFR32BG13P\GCC\bgapi.a(bgapi_gatt_lib.c.obj)
 .ARM.attributes
                0x00000b5f       0x39 C:\Users\Satyanarayana\SimplicityStudio\v4_workspace\soc-smartPhone_NoBuff\protocol\bluetooth_2.6\lib\EFR32BG13P\GCC\bgapi.a(bgapi_ps.c.obj)
 .ARM.attributes
                0x00000b98       0x39 C:\Users\Satyanarayana\SimplicityStudio\v4_workspace\soc-smartPhone_NoBuff\protocol\bluetooth_2.6\lib\EFR32BG13P\GCC\bgapi.a(bgapi_sm.c.obj)
 .ARM.attributes
                0x00000bd1       0x39 C:\Users\Satyanarayana\SimplicityStudio\v4_workspace\soc-smartPhone_NoBuff\protocol\bluetooth_2.6\lib\EFR32BG13P\GCC\bgapi.a(bgapi_system.c.obj)
 .ARM.attributes
                0x00000c0a       0x39 C:\Users\Satyanarayana\SimplicityStudio\v4_workspace\soc-smartPhone_NoBuff\protocol\bluetooth_2.6\lib\EFR32BG13P\GCC\bgapi.a(bgapi_endpoint.c.obj)
 .ARM.attributes
                0x00000c43       0x39 C:\Users\Satyanarayana\SimplicityStudio\v4_workspace\soc-smartPhone_NoBuff\protocol\bluetooth_2.6\lib\EFR32BG13P\GCC\bgapi.a(bgapi_le_connection.c.obj)
 .ARM.attributes
                0x00000c7c       0x39 C:\Users\Satyanarayana\SimplicityStudio\v4_workspace\soc-smartPhone_NoBuff\protocol\bluetooth_2.6\lib\EFR32BG13P\GCC\bgapi.a(gatt_client.c.obj)
 .ARM.attributes
                0x00000cb5       0x39 C:\Users\Satyanarayana\SimplicityStudio\v4_workspace\soc-smartPhone_NoBuff\protocol\bluetooth_2.6\lib\EFR32BG13P\GCC\bgapi.a(ubt_gatt_client.c.obj)
 .ARM.attributes
                0x00000cee       0x39 C:\Users\Satyanarayana\SimplicityStudio\v4_workspace\soc-smartPhone_NoBuff\protocol\bluetooth_2.6\lib\EFR32BG13P\GCC\bgapi.a(att_client.c.obj)
 .ARM.attributes
                0x00000d27       0x1c C:\Users\Satyanarayana\SimplicityStudio\v4_workspace\soc-smartPhone_NoBuff\protocol\bluetooth_2.6\lib\EFR32BG13P\EABI\binstack.o
 .ARM.attributes
                0x00000d43       0x22 c:/siliconlabs/simplicitystudio/v4/developer/toolchains/gnu_arm/4.9_2015q3/bin/../lib/gcc/arm-none-eabi/4.9.3/armv7e-m/fpu\libgcc.a(_arm_muldivdf3.o)
 .ARM.attributes
                0x00000d65       0x22 c:/siliconlabs/simplicitystudio/v4/developer/toolchains/gnu_arm/4.9_2015q3/bin/../lib/gcc/arm-none-eabi/4.9.3/armv7e-m/fpu\libgcc.a(_arm_fixdfsi.o)
 .ARM.attributes
                0x00000d87       0x22 c:/siliconlabs/simplicitystudio/v4/developer/toolchains/gnu_arm/4.9_2015q3/bin/../lib/gcc/arm-none-eabi/4.9.3/armv7e-m/fpu\libgcc.a(_aeabi_uldivmod.o)
 .ARM.attributes
                0x00000da9       0x34 c:/siliconlabs/simplicitystudio/v4/developer/toolchains/gnu_arm/4.9_2015q3/bin/../lib/gcc/arm-none-eabi/4.9.3/armv7e-m/fpu\libgcc.a(bpabi.o)
 .ARM.attributes
                0x00000ddd       0x22 c:/siliconlabs/simplicitystudio/v4/developer/toolchains/gnu_arm/4.9_2015q3/bin/../lib/gcc/arm-none-eabi/4.9.3/armv7e-m/fpu\libgcc.a(_dvmd_tls.o)
 .ARM.attributes
                0x00000dff       0x34 c:/siliconlabs/simplicitystudio/v4/developer/toolchains/gnu_arm/4.9_2015q3/bin/../lib/gcc/arm-none-eabi/4.9.3/armv7e-m/fpu\libgcc.a(_divdi3.o)
 .ARM.attributes
                0x00000e33       0x34 c:/siliconlabs/simplicitystudio/v4/developer/toolchains/gnu_arm/4.9_2015q3/bin/../lib/gcc/arm-none-eabi/4.9.3/armv7e-m/fpu\libgcc.a(_udivdi3.o)
 .ARM.attributes
                0x00000e67       0x34 c:/siliconlabs/simplicitystudio/v4/developer/toolchains/gnu_arm/4.9_2015q3/bin/../lib/gcc/arm-none-eabi/4.9.3/../../../../arm-none-eabi/lib/armv7e-m/fpu\libc.a(lib_a-exit.o)
 .ARM.attributes
                0x00000e9b       0x34 c:/siliconlabs/simplicitystudio/v4/developer/toolchains/gnu_arm/4.9_2015q3/bin/../lib/gcc/arm-none-eabi/4.9.3/../../../../arm-none-eabi/lib/armv7e-m/fpu\libc.a(lib_a-impure.o)
 .ARM.attributes
                0x00000ecf       0x34 c:/siliconlabs/simplicitystudio/v4/developer/toolchains/gnu_arm/4.9_2015q3/bin/../lib/gcc/arm-none-eabi/4.9.3/../../../../arm-none-eabi/lib/armv7e-m/fpu\libc.a(lib_a-init.o)
 .ARM.attributes
                0x00000f03       0x20 c:/siliconlabs/simplicitystudio/v4/developer/toolchains/gnu_arm/4.9_2015q3/bin/../lib/gcc/arm-none-eabi/4.9.3/../../../../arm-none-eabi/lib/armv7e-m/fpu\libc.a(lib_a-memcpy.o)
 .ARM.attributes
                0x00000f23       0x34 c:/siliconlabs/simplicitystudio/v4/developer/toolchains/gnu_arm/4.9_2015q3/bin/../lib/gcc/arm-none-eabi/4.9.3/../../../../arm-none-eabi/lib/armv7e-m/fpu\libc.a(lib_a-memset.o)
 .ARM.attributes
                0x00000f57       0x34 c:/siliconlabs/simplicitystudio/v4/developer/toolchains/gnu_arm/4.9_2015q3/bin/../lib/gcc/arm-none-eabi/4.9.3/../../../../arm-none-eabi/lib/armv7e-m/fpu\libc.a(lib_a-snprintf.o)
 .ARM.attributes
                0x00000f8b       0x34 c:/siliconlabs/simplicitystudio/v4/developer/toolchains/gnu_arm/4.9_2015q3/bin/../lib/gcc/arm-none-eabi/4.9.3/../../../../arm-none-eabi/lib/armv7e-m/fpu\libc.a(lib_a-strlen.o)
 .ARM.attributes
                0x00000fbf       0x34 c:/siliconlabs/simplicitystudio/v4/developer/toolchains/gnu_arm/4.9_2015q3/bin/../lib/gcc/arm-none-eabi/4.9.3/../../../../arm-none-eabi/lib/armv7e-m/fpu\libc.a(lib_a-svfprintf.o)
 .ARM.attributes
                0x00000ff3       0x34 c:/siliconlabs/simplicitystudio/v4/developer/toolchains/gnu_arm/4.9_2015q3/bin/../lib/gcc/arm-none-eabi/4.9.3/../../../../arm-none-eabi/lib/armv7e-m/fpu\libc.a(lib_a-__call_atexit.o)
 .ARM.attributes
                0x00001027       0x34 c:/siliconlabs/simplicitystudio/v4/developer/toolchains/gnu_arm/4.9_2015q3/bin/../lib/gcc/arm-none-eabi/4.9.3/../../../../arm-none-eabi/lib/armv7e-m/fpu\libc.a(lib_a-atexit.o)
 .ARM.attributes
                0x0000105b       0x34 c:/siliconlabs/simplicitystudio/v4/developer/toolchains/gnu_arm/4.9_2015q3/bin/../lib/gcc/arm-none-eabi/4.9.3/../../../../arm-none-eabi/lib/armv7e-m/fpu\libc.a(lib_a-dtoa.o)
 .ARM.attributes
                0x0000108f       0x34 c:/siliconlabs/simplicitystudio/v4/developer/toolchains/gnu_arm/4.9_2015q3/bin/../lib/gcc/arm-none-eabi/4.9.3/../../../../arm-none-eabi/lib/armv7e-m/fpu\libc.a(lib_a-fini.o)
 .ARM.attributes
                0x000010c3       0x34 c:/siliconlabs/simplicitystudio/v4/developer/toolchains/gnu_arm/4.9_2015q3/bin/../lib/gcc/arm-none-eabi/4.9.3/../../../../arm-none-eabi/lib/armv7e-m/fpu\libc.a(lib_a-locale.o)
 .ARM.attributes
                0x000010f7       0x34 c:/siliconlabs/simplicitystudio/v4/developer/toolchains/gnu_arm/4.9_2015q3/bin/../lib/gcc/arm-none-eabi/4.9.3/../../../../arm-none-eabi/lib/armv7e-m/fpu\libc.a(lib_a-mallocr.o)
 .ARM.attributes
                0x0000112b       0x34 c:/siliconlabs/simplicitystudio/v4/developer/toolchains/gnu_arm/4.9_2015q3/bin/../lib/gcc/arm-none-eabi/4.9.3/../../../../arm-none-eabi/lib/armv7e-m/fpu\libc.a(lib_a-memchr.o)
 .ARM.attributes
                0x0000115f       0x34 c:/siliconlabs/simplicitystudio/v4/developer/toolchains/gnu_arm/4.9_2015q3/bin/../lib/gcc/arm-none-eabi/4.9.3/../../../../arm-none-eabi/lib/armv7e-m/fpu\libc.a(lib_a-mlock.o)
 .ARM.attributes
                0x00001193       0x34 c:/siliconlabs/simplicitystudio/v4/developer/toolchains/gnu_arm/4.9_2015q3/bin/../lib/gcc/arm-none-eabi/4.9.3/../../../../arm-none-eabi/lib/armv7e-m/fpu\libc.a(lib_a-mprec.o)
 .ARM.attributes
                0x000011c7       0x34 c:/siliconlabs/simplicitystudio/v4/developer/toolchains/gnu_arm/4.9_2015q3/bin/../lib/gcc/arm-none-eabi/4.9.3/../../../../arm-none-eabi/lib/armv7e-m/fpu\libc.a(lib_a-s_fpclassify.o)
 .ARM.attributes
                0x000011fb       0x34 c:/siliconlabs/simplicitystudio/v4/developer/toolchains/gnu_arm/4.9_2015q3/bin/../lib/gcc/arm-none-eabi/4.9.3/../../../../arm-none-eabi/lib/armv7e-m/fpu\libc.a(lib_a-sbrkr.o)
 .ARM.attributes
                0x0000122f       0x20 c:/siliconlabs/simplicitystudio/v4/developer/toolchains/gnu_arm/4.9_2015q3/bin/../lib/gcc/arm-none-eabi/4.9.3/../../../../arm-none-eabi/lib/armv7e-m/fpu\libc.a(lib_a-strcmp.o)
 .ARM.attributes
                0x0000124f       0x34 c:/siliconlabs/simplicitystudio/v4/developer/toolchains/gnu_arm/4.9_2015q3/bin/../lib/gcc/arm-none-eabi/4.9.3/../../../../arm-none-eabi/lib/armv7e-m/fpu\libc.a(lib_a-svfiprintf.o)
 .ARM.attributes
                0x00001283       0x34 c:/siliconlabs/simplicitystudio/v4/developer/toolchains/gnu_arm/4.9_2015q3/bin/../lib/gcc/arm-none-eabi/4.9.3/../../../../arm-none-eabi/lib/armv7e-m/fpu\libc.a(lib_a-__atexit.o)
 .ARM.attributes
                0x000012b7       0x34 c:/siliconlabs/simplicitystudio/v4/developer/toolchains/gnu_arm/4.9_2015q3/bin/../lib/gcc/arm-none-eabi/4.9.3/../../../../arm-none-eabi/lib/armv7e-m/fpu\libc.a(lib_a-callocr.o)
 .ARM.attributes
                0x000012eb       0x34 c:/siliconlabs/simplicitystudio/v4/developer/toolchains/gnu_arm/4.9_2015q3/bin/../lib/gcc/arm-none-eabi/4.9.3/../../../../arm-none-eabi/lib/armv7e-m/fpu\libc.a(lib_a-freer.o)
 .ARM.attributes
                0x0000131f       0x34 c:/siliconlabs/simplicitystudio/v4/developer/toolchains/gnu_arm/4.9_2015q3/bin/../lib/gcc/arm-none-eabi/4.9.3/../../../../arm-none-eabi/lib/armv7e-m/fpu\libc.a(lib_a-memmove.o)
 .ARM.attributes
                0x00001353       0x34 c:/siliconlabs/simplicitystudio/v4/developer/toolchains/gnu_arm/4.9_2015q3/bin/../lib/gcc/arm-none-eabi/4.9.3/../../../../arm-none-eabi/lib/armv7e-m/fpu\libc.a(lib_a-reallocr.o)
 .ARM.attributes
                0x00001387       0x34 c:/siliconlabs/simplicitystudio/v4/developer/toolchains/gnu_arm/4.9_2015q3/bin/../lib/gcc/arm-none-eabi/4.9.3/../../../../arm-none-eabi/lib/armv7e-m/fpu\libc.a(lib_a-reent.o)
 .ARM.attributes
                0x000013bb       0x34 c:/siliconlabs/simplicitystudio/v4/developer/toolchains/gnu_arm/4.9_2015q3/bin/../lib/gcc/arm-none-eabi/4.9.3/../../../../arm-none-eabi/lib/armv7e-m/fpu\libnosys.a(sbrk.o)
 .ARM.attributes
                0x000013ef       0x34 c:/siliconlabs/simplicitystudio/v4/developer/toolchains/gnu_arm/4.9_2015q3/bin/../lib/gcc/arm-none-eabi/4.9.3/../../../../arm-none-eabi/lib/armv7e-m/fpu\libnosys.a(_exit.o)
 .ARM.attributes
                0x00001423       0x22 c:/siliconlabs/simplicitystudio/v4/developer/toolchains/gnu_arm/4.9_2015q3/bin/../lib/gcc/arm-none-eabi/4.9.3/armv7e-m/fpu\libgcc.a(_arm_addsubdf3.o)
 .ARM.attributes
                0x00001445       0x22 c:/siliconlabs/simplicitystudio/v4/developer/toolchains/gnu_arm/4.9_2015q3/bin/../lib/gcc/arm-none-eabi/4.9.3/armv7e-m/fpu\libgcc.a(_arm_cmpdf2.o)
 .ARM.attributes
                0x00001467       0x34 c:/siliconlabs/simplicitystudio/v4/developer/toolchains/gnu_arm/4.9_2015q3/bin/../lib/gcc/arm-none-eabi/4.9.3/armv7e-m/fpu/crtend.o
 .ARM.attributes
                0x0000149b       0x22 c:/siliconlabs/simplicitystudio/v4/developer/toolchains/gnu_arm/4.9_2015q3/bin/../lib/gcc/arm-none-eabi/4.9.3/armv7e-m/fpu/crtn.o

.comment        0x00000000       0xde
 .comment       0x00000000       0x70 ./advertisement.o
                                 0x71 (size before relaxing)
 .comment       0x00000000       0x71 ./app.o
 .comment       0x00000000       0x71 ./app_hw.o
 .comment       0x00000000       0x71 ./app_ui.o
 .comment       0x00000000       0x71 ./application_properties.o
 .comment       0x00000000       0x71 ./beacon.o
 .comment       0x00000000       0x71 ./gatt_db.o
 .comment       0x00000000       0x71 ./graphics.o
 .comment       0x00000000       0x71 ./htm.o
 .comment       0x00000000       0x71 ./ia.o
 .comment       0x00000000       0x71 ./main.o
 .comment       0x00000000       0x71 ./emlib/em_cmu.o
 .comment       0x00000000       0x71 ./emlib/em_gpio.o
 .comment       0x00000000       0x71 ./emlib/em_i2c.o
 .comment       0x00000000       0x71 ./emlib/em_letimer.o
 .comment       0x00000000       0x71 ./emlib/em_rtcc.o
 .comment       0x00000000       0x71 ./emlib/em_usart.o
 .comment       0x00000000       0x71 ./hardware/kit/common/bsp/bsp_stk_leds.o
 .comment       0x00000000       0x71 ./hardware/kit/common/drivers/i2cspm.o
 .comment       0x00000000       0x71 ./hardware/kit/common/drivers/mx25flash_spi.o
 .comment       0x00000000       0x71 ./hardware/kit/common/drivers/si7013.o
 .comment       0x00000000       0x71 ./platform/Device/SiliconLabs/EFR32BG13P/Source/GCC/startup_efr32bg13p.o
 .comment       0x00000000       0x71 ./platform/emdrv/dmadrv/src/dmadrv.o
 .comment       0x00000000       0x71 ./platform/middleware/glib/dmd/display/dmd_display.o
 .comment       0x00000000       0x71 ./platform/middleware/glib/glib/glib.o
 .comment       0x00000000       0x71 ./platform/middleware/glib/glib/glib_rectangle.o
 .comment       0x00000000       0x71 ./platform/middleware/glib/glib/glib_string.o
 .comment       0x00000000       0x71 ./src/InitDevice.o
 .comment       0x00000000       0x71 ./src/bma280.o
 .comment       0x00000000       0x71 ./src/cmu.o
 .comment       0x00000000       0x71 ./src/gpio.o
 .comment       0x00000000       0x71 ./src/letimer0.o
 .comment       0x00000000       0x71 ./src/spi.o
 .comment       0x00000070       0x6e C:\Users\Satyanarayana\SimplicityStudio\v4_workspace\soc-smartPhone_NoBuff\protocol\bluetooth_2.6\lib\EFR32BG13P\GCC\bgapi.a(gecko_bgapi_hardware.c.obj)
                                 0x6f (size before relaxing)
 .comment       0x00000000       0x6f C:\Users\Satyanarayana\SimplicityStudio\v4_workspace\soc-smartPhone_NoBuff\protocol\bluetooth_2.6\lib\EFR32BG13P\GCC\bgapi.a(gecko_bgapi_test.c.obj)
 .comment       0x00000000       0x6f C:\Users\Satyanarayana\SimplicityStudio\v4_workspace\soc-smartPhone_NoBuff\protocol\bluetooth_2.6\lib\EFR32BG13P\GCC\bgapi.a(gecko_bgapi_dfu.c.obj)
 .comment       0x00000000       0x6f C:\Users\Satyanarayana\SimplicityStudio\v4_workspace\soc-smartPhone_NoBuff\protocol\bluetooth_2.6\lib\EFR32BG13P\GCC\bgapi.a(gecko_bgapi_gap.c.obj)
 .comment       0x00000000       0x6f C:\Users\Satyanarayana\SimplicityStudio\v4_workspace\soc-smartPhone_NoBuff\protocol\bluetooth_2.6\lib\EFR32BG13P\GCC\bgapi.a(gecko_bgapi_gatt.c.obj)
 .comment       0x00000000       0x6f C:\Users\Satyanarayana\SimplicityStudio\v4_workspace\soc-smartPhone_NoBuff\protocol\bluetooth_2.6\lib\EFR32BG13P\GCC\bgapi.a(gecko_bgapi_gatt_server.c.obj)
 .comment       0x00000000       0x6f C:\Users\Satyanarayana\SimplicityStudio\v4_workspace\soc-smartPhone_NoBuff\protocol\bluetooth_2.6\lib\EFR32BG13P\GCC\bgapi.a(gecko_bgapi_flash.c.obj)
 .comment       0x00000000       0x6f C:\Users\Satyanarayana\SimplicityStudio\v4_workspace\soc-smartPhone_NoBuff\protocol\bluetooth_2.6\lib\EFR32BG13P\GCC\bgapi.a(gecko_bgapi_sm.c.obj)
 .comment       0x00000000       0x6f C:\Users\Satyanarayana\SimplicityStudio\v4_workspace\soc-smartPhone_NoBuff\protocol\bluetooth_2.6\lib\EFR32BG13P\GCC\bgapi.a(gecko_bgapi_system.c.obj)
 .comment       0x00000000       0x6f C:\Users\Satyanarayana\SimplicityStudio\v4_workspace\soc-smartPhone_NoBuff\protocol\bluetooth_2.6\lib\EFR32BG13P\GCC\bgapi.a(gecko_bgapi_endpoint.c.obj)
 .comment       0x00000000       0x6f C:\Users\Satyanarayana\SimplicityStudio\v4_workspace\soc-smartPhone_NoBuff\protocol\bluetooth_2.6\lib\EFR32BG13P\GCC\bgapi.a(gecko_bgapi_le_connection.c.obj)
 .comment       0x00000000       0x6f C:\Users\Satyanarayana\SimplicityStudio\v4_workspace\soc-smartPhone_NoBuff\protocol\bluetooth_2.6\lib\EFR32BG13P\GCC\bgapi.a(bgapi_hardware.c.obj)
 .comment       0x00000000       0x6f C:\Users\Satyanarayana\SimplicityStudio\v4_workspace\soc-smartPhone_NoBuff\protocol\bluetooth_2.6\lib\EFR32BG13P\GCC\bgapi.a(bgapi_test_lib.c.obj)
 .comment       0x00000000       0x6f C:\Users\Satyanarayana\SimplicityStudio\v4_workspace\soc-smartPhone_NoBuff\protocol\bluetooth_2.6\lib\EFR32BG13P\GCC\bgapi.a(bgapi_dfu.c.obj)
 .comment       0x00000000       0x6f C:\Users\Satyanarayana\SimplicityStudio\v4_workspace\soc-smartPhone_NoBuff\protocol\bluetooth_2.6\lib\EFR32BG13P\GCC\bgapi.a(bgapi_gap.c.obj)
 .comment       0x00000000       0x6f C:\Users\Satyanarayana\SimplicityStudio\v4_workspace\soc-smartPhone_NoBuff\protocol\bluetooth_2.6\lib\EFR32BG13P\GCC\bgapi.a(bgapi_gatt_lib.c.obj)
 .comment       0x00000000       0x6f C:\Users\Satyanarayana\SimplicityStudio\v4_workspace\soc-smartPhone_NoBuff\protocol\bluetooth_2.6\lib\EFR32BG13P\GCC\bgapi.a(bgapi_ps.c.obj)
 .comment       0x00000000       0x6f C:\Users\Satyanarayana\SimplicityStudio\v4_workspace\soc-smartPhone_NoBuff\protocol\bluetooth_2.6\lib\EFR32BG13P\GCC\bgapi.a(bgapi_sm.c.obj)
 .comment       0x00000000       0x6f C:\Users\Satyanarayana\SimplicityStudio\v4_workspace\soc-smartPhone_NoBuff\protocol\bluetooth_2.6\lib\EFR32BG13P\GCC\bgapi.a(bgapi_system.c.obj)
 .comment       0x00000000       0x6f C:\Users\Satyanarayana\SimplicityStudio\v4_workspace\soc-smartPhone_NoBuff\protocol\bluetooth_2.6\lib\EFR32BG13P\GCC\bgapi.a(bgapi_endpoint.c.obj)
 .comment       0x00000000       0x6f C:\Users\Satyanarayana\SimplicityStudio\v4_workspace\soc-smartPhone_NoBuff\protocol\bluetooth_2.6\lib\EFR32BG13P\GCC\bgapi.a(bgapi_le_connection.c.obj)
 .comment       0x00000000       0x6f C:\Users\Satyanarayana\SimplicityStudio\v4_workspace\soc-smartPhone_NoBuff\protocol\bluetooth_2.6\lib\EFR32BG13P\GCC\bgapi.a(gatt_client.c.obj)
 .comment       0x00000000       0x6f C:\Users\Satyanarayana\SimplicityStudio\v4_workspace\soc-smartPhone_NoBuff\protocol\bluetooth_2.6\lib\EFR32BG13P\GCC\bgapi.a(ubt_gatt_client.c.obj)
 .comment       0x00000000       0x6f C:\Users\Satyanarayana\SimplicityStudio\v4_workspace\soc-smartPhone_NoBuff\protocol\bluetooth_2.6\lib\EFR32BG13P\GCC\bgapi.a(att_client.c.obj)

.debug_info     0x00000000    0x34290
 .debug_info    0x00000000     0x36d8 ./advertisement.o
 .debug_info    0x000036d8     0x3be9 ./app.o
 .debug_info    0x000072c1      0x2d8 ./app_hw.o
 .debug_info    0x00007599     0x3d0c ./app_ui.o
 .debug_info    0x0000b2a5      0x168 ./application_properties.o
 .debug_info    0x0000b40d     0x3bd6 ./beacon.o
 .debug_info    0x0000efe3      0x698 ./gatt_db.o
 .debug_info    0x0000f67b      0x42e ./graphics.o
 .debug_info    0x0000faa9     0x3d8e ./htm.o
 .debug_info    0x00013837     0x358f ./ia.o
 .debug_info    0x00016dc6     0x47c8 ./main.o
 .debug_info    0x0001b58e     0x23b4 ./emlib/em_cmu.o
 .debug_info    0x0001d942      0xa31 ./emlib/em_gpio.o
 .debug_info    0x0001e373      0x932 ./emlib/em_i2c.o
 .debug_info    0x0001eca5      0x507 ./emlib/em_letimer.o
 .debug_info    0x0001f1ac      0xb7b ./emlib/em_rtcc.o
 .debug_info    0x0001fd27      0xfed ./emlib/em_usart.o
 .debug_info    0x00020d14      0x8bb ./hardware/kit/common/bsp/bsp_stk_leds.o
 .debug_info    0x000215cf      0x9fd ./hardware/kit/common/drivers/i2cspm.o
 .debug_info    0x00021fcc     0x1622 ./hardware/kit/common/drivers/mx25flash_spi.o
 .debug_info    0x000235ee      0x7ad ./hardware/kit/common/drivers/si7013.o
 .debug_info    0x00023d9b      0x1b4 ./platform/Device/SiliconLabs/EFR32BG13P/Source/GCC/startup_efr32bg13p.o
 .debug_info    0x00023f4f     0x1491 ./platform/emdrv/dmadrv/src/dmadrv.o
 .debug_info    0x000253e0      0x910 ./platform/middleware/glib/dmd/display/dmd_display.o
 .debug_info    0x00025cf0      0x7e9 ./platform/middleware/glib/glib/glib.o
 .debug_info    0x000264d9      0x45c ./platform/middleware/glib/glib/glib_rectangle.o
 .debug_info    0x00026935      0x4cf ./platform/middleware/glib/glib/glib_string.o
 .debug_info    0x00026e04     0x135f ./src/InitDevice.o
 .debug_info    0x00028163     0x384d ./src/bma280.o
 .debug_info    0x0002b9b0      0x7e6 ./src/cmu.o
 .debug_info    0x0002c196     0x4075 ./src/gpio.o
 .debug_info    0x0003020b     0x3ba9 ./src/letimer0.o
 .debug_info    0x00033db4      0x4dc ./src/spi.o

.debug_abbrev   0x00000000     0x372c
 .debug_abbrev  0x00000000      0x174 ./advertisement.o
 .debug_abbrev  0x00000174      0x1bd ./app.o
 .debug_abbrev  0x00000331      0x135 ./app_hw.o
 .debug_abbrev  0x00000466      0x297 ./app_ui.o
 .debug_abbrev  0x000006fd       0x97 ./application_properties.o
 .debug_abbrev  0x00000794      0x174 ./beacon.o
 .debug_abbrev  0x00000908       0xbd ./gatt_db.o
 .debug_abbrev  0x000009c5      0x131 ./graphics.o
 .debug_abbrev  0x00000af6      0x20d ./htm.o
 .debug_abbrev  0x00000d03      0x10e ./ia.o
 .debug_abbrev  0x00000e11      0x2c9 ./main.o
 .debug_abbrev  0x000010da      0x314 ./emlib/em_cmu.o
 .debug_abbrev  0x000013ee      0x1da ./emlib/em_gpio.o
 .debug_abbrev  0x000015c8      0x259 ./emlib/em_i2c.o
 .debug_abbrev  0x00001821      0x189 ./emlib/em_letimer.o
 .debug_abbrev  0x000019aa      0x188 ./emlib/em_rtcc.o
 .debug_abbrev  0x00001b32      0x1d9 ./emlib/em_usart.o
 .debug_abbrev  0x00001d0b      0x1b1 ./hardware/kit/common/bsp/bsp_stk_leds.o
 .debug_abbrev  0x00001ebc      0x1c6 ./hardware/kit/common/drivers/i2cspm.o
 .debug_abbrev  0x00002082      0x29a ./hardware/kit/common/drivers/mx25flash_spi.o
 .debug_abbrev  0x0000231c      0x1d0 ./hardware/kit/common/drivers/si7013.o
 .debug_abbrev  0x000024ec       0xdb ./platform/Device/SiliconLabs/EFR32BG13P/Source/GCC/startup_efr32bg13p.o
 .debug_abbrev  0x000025c7      0x25f ./platform/emdrv/dmadrv/src/dmadrv.o
 .debug_abbrev  0x00002826      0x1cb ./platform/middleware/glib/dmd/display/dmd_display.o
 .debug_abbrev  0x000029f1      0x1e1 ./platform/middleware/glib/glib/glib.o
 .debug_abbrev  0x00002bd2      0x159 ./platform/middleware/glib/glib/glib_rectangle.o
 .debug_abbrev  0x00002d2b      0x109 ./platform/middleware/glib/glib/glib_string.o
 .debug_abbrev  0x00002e34      0x19e ./src/InitDevice.o
 .debug_abbrev  0x00002fd2      0x17f ./src/bma280.o
 .debug_abbrev  0x00003151       0xd4 ./src/cmu.o
 .debug_abbrev  0x00003225      0x234 ./src/gpio.o
 .debug_abbrev  0x00003459      0x1d6 ./src/letimer0.o
 .debug_abbrev  0x0000362f       0xfd ./src/spi.o

.debug_loc      0x00000000     0x6f19
 .debug_loc     0x00000000       0xec ./advertisement.o
 .debug_loc     0x000000ec      0x20c ./app.o
 .debug_loc     0x000002f8       0xf8 ./app_hw.o
 .debug_loc     0x000003f0      0x40c ./app_ui.o
 .debug_loc     0x000007fc       0xf0 ./beacon.o
 .debug_loc     0x000008ec       0xf0 ./graphics.o
 .debug_loc     0x000009dc      0x21a ./htm.o
 .debug_loc     0x00000bf6       0x50 ./ia.o
 .debug_loc     0x00000c46      0x310 ./main.o
 .debug_loc     0x00000f56     0x10a8 ./emlib/em_cmu.o
 .debug_loc     0x00001ffe      0x4b4 ./emlib/em_gpio.o
 .debug_loc     0x000024b2      0x3ac ./emlib/em_i2c.o
 .debug_loc     0x0000285e      0x284 ./emlib/em_letimer.o
 .debug_loc     0x00002ae2      0x254 ./emlib/em_rtcc.o
 .debug_loc     0x00002d36      0x6d2 ./emlib/em_usart.o
 .debug_loc     0x00003408      0x490 ./hardware/kit/common/bsp/bsp_stk_leds.o
 .debug_loc     0x00003898      0x1f8 ./hardware/kit/common/drivers/i2cspm.o
 .debug_loc     0x00003a90      0xeec ./hardware/kit/common/drivers/mx25flash_spi.o
 .debug_loc     0x0000497c      0x322 ./hardware/kit/common/drivers/si7013.o
 .debug_loc     0x00004c9e       0x64 ./platform/Device/SiliconLabs/EFR32BG13P/Source/GCC/startup_efr32bg13p.o
 .debug_loc     0x00004d02      0x568 ./platform/emdrv/dmadrv/src/dmadrv.o
 .debug_loc     0x0000526a      0x44c ./platform/middleware/glib/dmd/display/dmd_display.o
 .debug_loc     0x000056b6      0x48c ./platform/middleware/glib/glib/glib.o
 .debug_loc     0x00005b42      0x159 ./platform/middleware/glib/glib/glib_rectangle.o
 .debug_loc     0x00005c9b       0xf0 ./platform/middleware/glib/glib/glib_string.o
 .debug_loc     0x00005d8b      0xa26 ./src/InitDevice.o
 .debug_loc     0x000067b1      0x16c ./src/bma280.o
 .debug_loc     0x0000691d       0x2c ./src/cmu.o
 .debug_loc     0x00006949      0x370 ./src/gpio.o
 .debug_loc     0x00006cb9      0x210 ./src/letimer0.o
 .debug_loc     0x00006ec9       0x50 ./src/spi.o

.debug_aranges  0x00000000      0xe88
 .debug_aranges
                0x00000000       0x38 ./advertisement.o
 .debug_aranges
                0x00000038       0x50 ./app.o
 .debug_aranges
                0x00000088       0x38 ./app_hw.o
 .debug_aranges
                0x000000c0       0x88 ./app_ui.o
 .debug_aranges
                0x00000148       0x18 ./application_properties.o
 .debug_aranges
                0x00000160       0x30 ./beacon.o
 .debug_aranges
                0x00000190       0x18 ./gatt_db.o
 .debug_aranges
                0x000001a8       0x30 ./graphics.o
 .debug_aranges
                0x000001d8       0x50 ./htm.o
 .debug_aranges
                0x00000228       0x20 ./ia.o
 .debug_aranges
                0x00000248       0x70 ./main.o
 .debug_aranges
                0x000002b8      0x1c0 ./emlib/em_cmu.o
 .debug_aranges
                0x00000478       0x88 ./emlib/em_gpio.o
 .debug_aranges
                0x00000500       0x70 ./emlib/em_i2c.o
 .debug_aranges
                0x00000570       0x50 ./emlib/em_letimer.o
 .debug_aranges
                0x000005c0       0x50 ./emlib/em_rtcc.o
 .debug_aranges
                0x00000610       0xb8 ./emlib/em_usart.o
 .debug_aranges
                0x000006c8       0x88 ./hardware/kit/common/bsp/bsp_stk_leds.o
 .debug_aranges
                0x00000750       0x48 ./hardware/kit/common/drivers/i2cspm.o
 .debug_aranges
                0x00000798      0x1c0 ./hardware/kit/common/drivers/mx25flash_spi.o
 .debug_aranges
                0x00000958       0x68 ./hardware/kit/common/drivers/si7013.o
 .debug_aranges
                0x000009c0       0x28 ./platform/Device/SiliconLabs/EFR32BG13P/Source/GCC/startup_efr32bg13p.o
 .debug_aranges
                0x000009e8       0xa0 ./platform/emdrv/dmadrv/src/dmadrv.o
 .debug_aranges
                0x00000a88       0x88 ./platform/middleware/glib/dmd/display/dmd_display.o
 .debug_aranges
                0x00000b10       0x90 ./platform/middleware/glib/glib/glib.o
 .debug_aranges
                0x00000ba0       0x38 ./platform/middleware/glib/glib/glib_rectangle.o
 .debug_aranges
                0x00000bd8       0x30 ./platform/middleware/glib/glib/glib_string.o
 .debug_aranges
                0x00000c08      0x148 ./src/InitDevice.o
 .debug_aranges
                0x00000d50       0x40 ./src/bma280.o
 .debug_aranges
                0x00000d90       0x20 ./src/cmu.o
 .debug_aranges
                0x00000db0       0x70 ./src/gpio.o
 .debug_aranges
                0x00000e20       0x48 ./src/letimer0.o
 .debug_aranges
                0x00000e68       0x20 ./src/spi.o

.debug_ranges   0x00000000      0xc68
 .debug_ranges  0x00000000       0x28 ./advertisement.o
 .debug_ranges  0x00000028       0x40 ./app.o
 .debug_ranges  0x00000068       0x28 ./app_hw.o
 .debug_ranges  0x00000090       0x78 ./app_ui.o
 .debug_ranges  0x00000108       0x20 ./beacon.o
 .debug_ranges  0x00000128       0x20 ./graphics.o
 .debug_ranges  0x00000148       0x40 ./htm.o
 .debug_ranges  0x00000188       0x10 ./ia.o
 .debug_ranges  0x00000198       0x60 ./main.o
 .debug_ranges  0x000001f8      0x1b0 ./emlib/em_cmu.o
 .debug_ranges  0x000003a8       0x78 ./emlib/em_gpio.o
 .debug_ranges  0x00000420       0x60 ./emlib/em_i2c.o
 .debug_ranges  0x00000480       0x40 ./emlib/em_letimer.o
 .debug_ranges  0x000004c0       0x40 ./emlib/em_rtcc.o
 .debug_ranges  0x00000500       0xa8 ./emlib/em_usart.o
 .debug_ranges  0x000005a8       0x78 ./hardware/kit/common/bsp/bsp_stk_leds.o
 .debug_ranges  0x00000620       0x38 ./hardware/kit/common/drivers/i2cspm.o
 .debug_ranges  0x00000658      0x1b0 ./hardware/kit/common/drivers/mx25flash_spi.o
 .debug_ranges  0x00000808       0x58 ./hardware/kit/common/drivers/si7013.o
 .debug_ranges  0x00000860       0x18 ./platform/Device/SiliconLabs/EFR32BG13P/Source/GCC/startup_efr32bg13p.o
 .debug_ranges  0x00000878       0x90 ./platform/emdrv/dmadrv/src/dmadrv.o
 .debug_ranges  0x00000908       0x78 ./platform/middleware/glib/dmd/display/dmd_display.o
 .debug_ranges  0x00000980       0x80 ./platform/middleware/glib/glib/glib.o
 .debug_ranges  0x00000a00       0x28 ./platform/middleware/glib/glib/glib_rectangle.o
 .debug_ranges  0x00000a28       0x20 ./platform/middleware/glib/glib/glib_string.o
 .debug_ranges  0x00000a48      0x138 ./src/InitDevice.o
 .debug_ranges  0x00000b80       0x30 ./src/bma280.o
 .debug_ranges  0x00000bb0       0x10 ./src/cmu.o
 .debug_ranges  0x00000bc0       0x60 ./src/gpio.o
 .debug_ranges  0x00000c20       0x38 ./src/letimer0.o
 .debug_ranges  0x00000c58       0x10 ./src/spi.o

.debug_line     0x00000000     0x87e9
 .debug_line    0x00000000      0x30d ./advertisement.o
 .debug_line    0x0000030d      0x388 ./app.o
 .debug_line    0x00000695      0x23f ./app_hw.o
 .debug_line    0x000008d4      0x52e ./app_ui.o
 .debug_line    0x00000e02      0x1a3 ./application_properties.o
 .debug_line    0x00000fa5      0x2df ./beacon.o
 .debug_line    0x00001284      0x19f ./gatt_db.o
 .debug_line    0x00001423      0x342 ./graphics.o
 .debug_line    0x00001765      0x39b ./htm.o
 .debug_line    0x00001b00      0x29a ./ia.o
 .debug_line    0x00001d9a      0x554 ./main.o
 .debug_line    0x000022ee      0xc02 ./emlib/em_cmu.o
 .debug_line    0x00002ef0      0x4aa ./emlib/em_gpio.o
 .debug_line    0x0000339a      0x474 ./emlib/em_i2c.o
 .debug_line    0x0000380e      0x342 ./emlib/em_letimer.o
 .debug_line    0x00003b50      0x37f ./emlib/em_rtcc.o
 .debug_line    0x00003ecf      0x597 ./emlib/em_usart.o
 .debug_line    0x00004466      0x4b3 ./hardware/kit/common/bsp/bsp_stk_leds.o
 .debug_line    0x00004919      0x3b9 ./hardware/kit/common/drivers/i2cspm.o
 .debug_line    0x00004cd2      0x9ff ./hardware/kit/common/drivers/mx25flash_spi.o
 .debug_line    0x000056d1      0x38d ./hardware/kit/common/drivers/si7013.o
 .debug_line    0x00005a5e      0x188 ./platform/Device/SiliconLabs/EFR32BG13P/Source/GCC/startup_efr32bg13p.o
 .debug_line    0x00005be6      0x5a0 ./platform/emdrv/dmadrv/src/dmadrv.o
 .debug_line    0x00006186      0x533 ./platform/middleware/glib/dmd/display/dmd_display.o
 .debug_line    0x000066b9      0x409 ./platform/middleware/glib/glib/glib.o
 .debug_line    0x00006ac2      0x2ae ./platform/middleware/glib/glib/glib_rectangle.o
 .debug_line    0x00006d70      0x2f2 ./platform/middleware/glib/glib/glib_string.o
 .debug_line    0x00007062      0x5f0 ./src/InitDevice.o
 .debug_line    0x00007652      0x387 ./src/bma280.o
 .debug_line    0x000079d9      0x26f ./src/cmu.o
 .debug_line    0x00007c48      0x52d ./src/gpio.o
 .debug_line    0x00008175      0x40c ./src/letimer0.o
 .debug_line    0x00008581      0x268 ./src/spi.o

.debug_str      0x00000000     0xcb1c
 .debug_str     0x00000000     0x46a9 ./advertisement.o
                               0x493c (size before relaxing)
 .debug_str     0x000046a9     0x1486 ./app.o
                               0x5bcf (size before relaxing)
 .debug_str     0x00005b2f      0x180 ./app_hw.o
                                0x395 (size before relaxing)
 .debug_str     0x00005caf      0x371 ./app_ui.o
                               0x4c1f (size before relaxing)
 .debug_str     0x00006020       0xaa ./application_properties.o
                                0x2ba (size before relaxing)
 .debug_str     0x000060ca       0xbb ./beacon.o
                               0x5c72 (size before relaxing)
 .debug_str     0x00006185      0x721 ./gatt_db.o
                                0x93d (size before relaxing)
 .debug_str     0x000068a6      0x20f ./graphics.o
                                0x4c1 (size before relaxing)
 .debug_str     0x00006ab5      0x1bd ./htm.o
                               0x5cb7 (size before relaxing)
 .debug_str     0x00006c72       0x29 ./ia.o
                               0x46bb (size before relaxing)
 .debug_str     0x00006c9b      0x579 ./main.o
                               0x643c (size before relaxing)
 .debug_str     0x00007214     0x1663 ./emlib/em_cmu.o
                               0x19a6 (size before relaxing)
 .debug_str     0x00008877      0x1d2 ./emlib/em_gpio.o
                                0x882 (size before relaxing)
 .debug_str     0x00008a49      0x2d9 ./emlib/em_i2c.o
                                0x8a3 (size before relaxing)
 .debug_str     0x00008d22      0x1e8 ./emlib/em_letimer.o
                                0x45b (size before relaxing)
 .debug_str     0x00008f0a      0x590 ./emlib/em_rtcc.o
                                0xac0 (size before relaxing)
 .debug_str     0x0000949a      0x96f ./emlib/em_usart.o
                                0xf42 (size before relaxing)
 .debug_str     0x00009e09       0xc9 ./hardware/kit/common/bsp/bsp_stk_leds.o
                                0x85b (size before relaxing)
 .debug_str     0x00009ed2       0xc5 ./hardware/kit/common/drivers/i2cspm.o
                                0xa30 (size before relaxing)
 .debug_str     0x00009f97      0x3c7 ./hardware/kit/common/drivers/mx25flash_spi.o
                                0xf5a (size before relaxing)
 .debug_str     0x0000a35e      0x13d ./hardware/kit/common/drivers/si7013.o
                                0x4d2 (size before relaxing)
 .debug_str     0x0000a49b       0xaa ./platform/Device/SiliconLabs/EFR32BG13P/Source/GCC/startup_efr32bg13p.o
                                0x2ba (size before relaxing)
 .debug_str     0x0000a545     0x10cc ./platform/emdrv/dmadrv/src/dmadrv.o
                               0x136b (size before relaxing)
 .debug_str     0x0000b611      0x420 ./platform/middleware/glib/dmd/display/dmd_display.o
                                0x6d4 (size before relaxing)
 .debug_str     0x0000ba31      0x18e ./platform/middleware/glib/glib/glib.o
                                0x5c1 (size before relaxing)
 .debug_str     0x0000bbbf       0x90 ./platform/middleware/glib/glib/glib_rectangle.o
                                0x4bc (size before relaxing)
 .debug_str     0x0000bc4f       0xc8 ./platform/middleware/glib/glib/glib_string.o
                                0x4de (size before relaxing)
 .debug_str     0x0000bd17      0x944 ./src/InitDevice.o
                               0x1682 (size before relaxing)
 .debug_str     0x0000c65b       0x80 ./src/bma280.o
                               0x480b (size before relaxing)
 .debug_str     0x0000c6db       0x16 ./src/cmu.o
                                0x99d (size before relaxing)
 .debug_str     0x0000c6f1      0x365 ./src/gpio.o
                               0x4ed8 (size before relaxing)
 .debug_str     0x0000ca56       0xa8 ./src/letimer0.o
                               0x4c17 (size before relaxing)
 .debug_str     0x0000cafe       0x1e ./src/spi.o
                                0x5f5 (size before relaxing)

.debug_frame    0x00000000     0x3fd4
 .debug_frame   0x00000000       0x8c ./advertisement.o
 .debug_frame   0x0000008c      0x104 ./app.o
 .debug_frame   0x00000190       0x90 ./app_hw.o
 .debug_frame   0x00000220      0x1f4 ./app_ui.o
 .debug_frame   0x00000414       0x7c ./beacon.o
 .debug_frame   0x00000490       0x80 ./graphics.o
 .debug_frame   0x00000510      0x110 ./htm.o
 .debug_frame   0x00000620       0x34 ./ia.o
 .debug_frame   0x00000654      0x188 ./main.o
 .debug_frame   0x000007dc      0x7ac ./emlib/em_cmu.o
 .debug_frame   0x00000f88      0x224 ./emlib/em_gpio.o
 .debug_frame   0x000011ac      0x1b0 ./emlib/em_i2c.o
 .debug_frame   0x0000135c      0x128 ./emlib/em_letimer.o
 .debug_frame   0x00001484      0x118 ./emlib/em_rtcc.o
 .debug_frame   0x0000159c      0x310 ./emlib/em_usart.o
 .debug_frame   0x000018ac      0x218 ./hardware/kit/common/bsp/bsp_stk_leds.o
 .debug_frame   0x00001ac4       0xf0 ./hardware/kit/common/drivers/i2cspm.o
 .debug_frame   0x00001bb4      0x74c ./hardware/kit/common/drivers/mx25flash_spi.o
 .debug_frame   0x00002300      0x178 ./hardware/kit/common/drivers/si7013.o
 .debug_frame   0x00002478       0x48 ./platform/Device/SiliconLabs/EFR32BG13P/Source/GCC/startup_efr32bg13p.o
 .debug_frame   0x000024c0      0x280 ./platform/emdrv/dmadrv/src/dmadrv.o
 .debug_frame   0x00002740      0x220 ./platform/middleware/glib/dmd/display/dmd_display.o
 .debug_frame   0x00002960      0x244 ./platform/middleware/glib/glib/glib.o
 .debug_frame   0x00002ba4       0xb4 ./platform/middleware/glib/glib/glib_rectangle.o
 .debug_frame   0x00002c58       0x80 ./platform/middleware/glib/glib/glib_string.o
 .debug_frame   0x00002cd8      0x4e4 ./src/InitDevice.o
 .debug_frame   0x000031bc       0xbc ./src/bma280.o
 .debug_frame   0x00003278       0x2c ./src/cmu.o
 .debug_frame   0x000032a4      0x1ac ./src/gpio.o
 .debug_frame   0x00003450       0xf8 ./src/letimer0.o
 .debug_frame   0x00003548       0x34 ./src/spi.o
 .debug_frame   0x0000357c       0x28 c:/siliconlabs/simplicitystudio/v4/developer/toolchains/gnu_arm/4.9_2015q3/bin/../lib/gcc/arm-none-eabi/4.9.3/armv7e-m/fpu\libgcc.a(_aeabi_uldivmod.o)
 .debug_frame   0x000035a4       0x50 c:/siliconlabs/simplicitystudio/v4/developer/toolchains/gnu_arm/4.9_2015q3/bin/../lib/gcc/arm-none-eabi/4.9.3/armv7e-m/fpu\libgcc.a(bpabi.o)
 .debug_frame   0x000035f4       0x34 c:/siliconlabs/simplicitystudio/v4/developer/toolchains/gnu_arm/4.9_2015q3/bin/../lib/gcc/arm-none-eabi/4.9.3/armv7e-m/fpu\libgcc.a(_divdi3.o)
 .debug_frame   0x00003628       0x30 c:/siliconlabs/simplicitystudio/v4/developer/toolchains/gnu_arm/4.9_2015q3/bin/../lib/gcc/arm-none-eabi/4.9.3/armv7e-m/fpu\libgcc.a(_udivdi3.o)
 .debug_frame   0x00003658       0x28 c:/siliconlabs/simplicitystudio/v4/developer/toolchains/gnu_arm/4.9_2015q3/bin/../lib/gcc/arm-none-eabi/4.9.3/../../../../arm-none-eabi/lib/armv7e-m/fpu\libc.a(lib_a-exit.o)
 .debug_frame   0x00003680       0x2c c:/siliconlabs/simplicitystudio/v4/developer/toolchains/gnu_arm/4.9_2015q3/bin/../lib/gcc/arm-none-eabi/4.9.3/../../../../arm-none-eabi/lib/armv7e-m/fpu\libc.a(lib_a-init.o)
 .debug_frame   0x000036ac       0x34 c:/siliconlabs/simplicitystudio/v4/developer/toolchains/gnu_arm/4.9_2015q3/bin/../lib/gcc/arm-none-eabi/4.9.3/../../../../arm-none-eabi/lib/armv7e-m/fpu\libc.a(lib_a-memset.o)
 .debug_frame   0x000036e0       0xd0 c:/siliconlabs/simplicitystudio/v4/developer/toolchains/gnu_arm/4.9_2015q3/bin/../lib/gcc/arm-none-eabi/4.9.3/../../../../arm-none-eabi/lib/armv7e-m/fpu\libc.a(lib_a-snprintf.o)
 .debug_frame   0x000037b0       0x20 c:/siliconlabs/simplicitystudio/v4/developer/toolchains/gnu_arm/4.9_2015q3/bin/../lib/gcc/arm-none-eabi/4.9.3/../../../../arm-none-eabi/lib/armv7e-m/fpu\libc.a(lib_a-strlen.o)
 .debug_frame   0x000037d0       0x40 c:/siliconlabs/simplicitystudio/v4/developer/toolchains/gnu_arm/4.9_2015q3/bin/../lib/gcc/arm-none-eabi/4.9.3/../../../../arm-none-eabi/lib/armv7e-m/fpu\libc.a(lib_a-svfprintf.o)
 .debug_frame   0x00003810       0x50 c:/siliconlabs/simplicitystudio/v4/developer/toolchains/gnu_arm/4.9_2015q3/bin/../lib/gcc/arm-none-eabi/4.9.3/../../../../arm-none-eabi/lib/armv7e-m/fpu\libc.a(lib_a-__call_atexit.o)
 .debug_frame   0x00003860       0x20 c:/siliconlabs/simplicitystudio/v4/developer/toolchains/gnu_arm/4.9_2015q3/bin/../lib/gcc/arm-none-eabi/4.9.3/../../../../arm-none-eabi/lib/armv7e-m/fpu\libc.a(lib_a-atexit.o)
 .debug_frame   0x00003880       0x88 c:/siliconlabs/simplicitystudio/v4/developer/toolchains/gnu_arm/4.9_2015q3/bin/../lib/gcc/arm-none-eabi/4.9.3/../../../../arm-none-eabi/lib/armv7e-m/fpu\libc.a(lib_a-dtoa.o)
 .debug_frame   0x00003908       0x34 c:/siliconlabs/simplicitystudio/v4/developer/toolchains/gnu_arm/4.9_2015q3/bin/../lib/gcc/arm-none-eabi/4.9.3/../../../../arm-none-eabi/lib/armv7e-m/fpu\libc.a(lib_a-fini.o)
 .debug_frame   0x0000393c       0x9c c:/siliconlabs/simplicitystudio/v4/developer/toolchains/gnu_arm/4.9_2015q3/bin/../lib/gcc/arm-none-eabi/4.9.3/../../../../arm-none-eabi/lib/armv7e-m/fpu\libc.a(lib_a-locale.o)
 .debug_frame   0x000039d8       0x58 c:/siliconlabs/simplicitystudio/v4/developer/toolchains/gnu_arm/4.9_2015q3/bin/../lib/gcc/arm-none-eabi/4.9.3/../../../../arm-none-eabi/lib/armv7e-m/fpu\libc.a(lib_a-mallocr.o)
 .debug_frame   0x00003a30       0x3c c:/siliconlabs/simplicitystudio/v4/developer/toolchains/gnu_arm/4.9_2015q3/bin/../lib/gcc/arm-none-eabi/4.9.3/../../../../arm-none-eabi/lib/armv7e-m/fpu\libc.a(lib_a-memchr.o)
 .debug_frame   0x00003a6c       0x30 c:/siliconlabs/simplicitystudio/v4/developer/toolchains/gnu_arm/4.9_2015q3/bin/../lib/gcc/arm-none-eabi/4.9.3/../../../../arm-none-eabi/lib/armv7e-m/fpu\libc.a(lib_a-mlock.o)
 .debug_frame   0x00003a9c      0x268 c:/siliconlabs/simplicitystudio/v4/developer/toolchains/gnu_arm/4.9_2015q3/bin/../lib/gcc/arm-none-eabi/4.9.3/../../../../arm-none-eabi/lib/armv7e-m/fpu\libc.a(lib_a-mprec.o)
 .debug_frame   0x00003d04       0x34 c:/siliconlabs/simplicitystudio/v4/developer/toolchains/gnu_arm/4.9_2015q3/bin/../lib/gcc/arm-none-eabi/4.9.3/../../../../arm-none-eabi/lib/armv7e-m/fpu\libc.a(lib_a-s_fpclassify.o)
 .debug_frame   0x00003d38       0x2c c:/siliconlabs/simplicitystudio/v4/developer/toolchains/gnu_arm/4.9_2015q3/bin/../lib/gcc/arm-none-eabi/4.9.3/../../../../arm-none-eabi/lib/armv7e-m/fpu\libc.a(lib_a-sbrkr.o)
 .debug_frame   0x00003d64       0x78 c:/siliconlabs/simplicitystudio/v4/developer/toolchains/gnu_arm/4.9_2015q3/bin/../lib/gcc/arm-none-eabi/4.9.3/../../../../arm-none-eabi/lib/armv7e-m/fpu\libc.a(lib_a-svfiprintf.o)
 .debug_frame   0x00003ddc       0x34 c:/siliconlabs/simplicitystudio/v4/developer/toolchains/gnu_arm/4.9_2015q3/bin/../lib/gcc/arm-none-eabi/4.9.3/../../../../arm-none-eabi/lib/armv7e-m/fpu\libc.a(lib_a-__atexit.o)
 .debug_frame   0x00003e10       0x28 c:/siliconlabs/simplicitystudio/v4/developer/toolchains/gnu_arm/4.9_2015q3/bin/../lib/gcc/arm-none-eabi/4.9.3/../../../../arm-none-eabi/lib/armv7e-m/fpu\libc.a(lib_a-callocr.o)
 .debug_frame   0x00003e38       0x74 c:/siliconlabs/simplicitystudio/v4/developer/toolchains/gnu_arm/4.9_2015q3/bin/../lib/gcc/arm-none-eabi/4.9.3/../../../../arm-none-eabi/lib/armv7e-m/fpu\libc.a(lib_a-freer.o)
 .debug_frame   0x00003eac       0x30 c:/siliconlabs/simplicitystudio/v4/developer/toolchains/gnu_arm/4.9_2015q3/bin/../lib/gcc/arm-none-eabi/4.9.3/../../../../arm-none-eabi/lib/armv7e-m/fpu\libc.a(lib_a-memmove.o)
 .debug_frame   0x00003edc       0x60 c:/siliconlabs/simplicitystudio/v4/developer/toolchains/gnu_arm/4.9_2015q3/bin/../lib/gcc/arm-none-eabi/4.9.3/../../../../arm-none-eabi/lib/armv7e-m/fpu\libc.a(lib_a-reallocr.o)
 .debug_frame   0x00003f3c       0x58 c:/siliconlabs/simplicitystudio/v4/developer/toolchains/gnu_arm/4.9_2015q3/bin/../lib/gcc/arm-none-eabi/4.9.3/../../../../arm-none-eabi/lib/armv7e-m/fpu\libc.a(lib_a-reent.o)
 .debug_frame   0x00003f94       0x20 c:/siliconlabs/simplicitystudio/v4/developer/toolchains/gnu_arm/4.9_2015q3/bin/../lib/gcc/arm-none-eabi/4.9.3/../../../../arm-none-eabi/lib/armv7e-m/fpu\libnosys.a(sbrk.o)
 .debug_frame   0x00003fb4       0x20 c:/siliconlabs/simplicitystudio/v4/developer/toolchains/gnu_arm/4.9_2015q3/bin/../lib/gcc/arm-none-eabi/4.9.3/../../../../arm-none-eabi/lib/armv7e-m/fpu\libnosys.a(_exit.o)
